(dp0
V001065aa
p1
(lp2
VLEA EAX,[RDI + -0x9]
p3
aVCMP EAX,0x1
p4
aVJBE 0x00106591
p5
asV001032db
p6
(lp7
VMOV RBX,qword ptr [RSP + 0x48]
p8
aVMOV R15,qword ptr [RSP + 0x20]
p9
aVJMP 0x001032fc
p10
asV00104de0
p11
(lp12
VMOV R9,qword ptr [RBX + 0x38]
p13
aVMOV RAX,qword ptr [RBX + 0x10]
p14
aVLEA RSI,[0x107490]
p15
aVMOV R8,qword ptr [RBX + 0x8]
p16
aVMOV EDX,0x5
p17
aVXOR EDI,EDI
p18
aVMOV R13,qword ptr [RBX + 0x30]
p19
aVMOV R12,qword ptr [RBX + 0x28]
p20
aVMOV qword ptr [RSP + 0x10],R9
p21
aVMOV R15,qword ptr [RBX + 0x20]
p22
aVMOV R14,qword ptr [RBX + 0x18]
p23
aVMOV qword ptr [RSP],RAX
p24
aVMOV qword ptr [RSP + 0x8],R8
p25
aVMOV RBX,qword ptr [RBX]
p26
aVCALL 0x00101740
p27
aVSUB RSP,0x8
p28
asV00103cf0
p29
(lp30
VMOV EAX,0x76
p31
aVJMP 0x00103c47
p32
asV00106071
p33
(lp34
VMOV EDI,0x30c
p35
aVADD RBP,R13
p36
aVCALL 0x001021a0
p37
aVMOV EDI,0x30c
p38
aVMOV EBX,EAX
p39
aVCALL 0x001021a0
p40
aVCMP EAX,0x6c617355
p41
aVJZ 0x001060a9
p42
asV001065b7
p43
(lp44
VCMP EDI,0x23
p45
aVJZ 0x00106739
p46
asV001065b2
p47
(lp48
VCMP EDI,0x20
p49
aVJZ 0x00106591
p50
asV001054c0
p51
(lp52
VSUB RSP,0x8
p53
aVCALL 0x00101870
p54
aVTEST RAX,RAX
p55
aVJZ 0x001054d3
p56
asV00102bf9
p57
(lp58
VLEA R9,[0x106f60]
p59
aVJMP 0x00102c86
p60
asV00103aa3
p61
(lp62
VCMP byte ptr [R9 + R14*0x1 + 0x1],0x3f
p63
aVJNZ 0x00103b30
p64
asV001056ea
p65
(lp66
VCMP AL,0x69
p67
aVJZ 0x00105777
p68
asV00105ec0
p69
(lp70
VMOV EDI,0x33f
p71
aVCALL 0x001021a0
p72
aVCMP EAX,0x2273616c
p73
aVSETZ AL
p74
aVMOVZX EAX,AL
p75
aVIMUL EBP,EAX
p76
aVJMP 0x00105d5a
p77
asV00103ce0
p78
(lp79
VMOV EAX,0x66
p80
aVJMP 0x00103c47
p81
asV001056f6
p82
(lp83
VMOV EDI,0x2
p84
aVMOV ESI,0x3e8
p85
aVJMP 0x00105712
p86
asV001043c2
p87
(lp88
VLEA RAX,[0x106ffb]
p89
aVMOV byte ptr [RSP + 0xb],0x1
p90
aVMOV byte ptr [RSP + 0xa],0x1
p91
aVMOV R11D,0x1
p92
aVXOR R15D,R15D
p93
aVMOV qword ptr [RSP + 0x38],RAX
p94
aVJMP 0x00103970
p95
asV001056f2
p96
(lp97
VCMP AL,0x42
p98
aVJNZ 0x00105708
p99
asV0010628c
p100
(lp101
VMOV EDI,0x325
p102
aVCALL 0x001021a0
p103
aVCMP EAX,0x3c73616c
p104
aVSETZ AL
p105
aVMOVZX EAX,AL
p106
aVIMUL EBX,EAX
p107
asV001041ad
p108
(lp109
VCMP byte ptr [RSP + 0xb],0x0
p110
aVJZ 0x001041ff
p111
asV00103ad1
p112
(lp113
VCMP byte ptr [RSP + 0xb],0x0
p114
aVJNZ 0x00103bc8
p115
asV001032fc
p116
(lp117
VTEST RBX,RBX
p118
aVJZ 0x00103325
p119
asV00101e07
p120
(lp121
VMOV RDI,qword ptr [0x00309008]
p122
aVCALL 0x00101a20
p123
asV0010295c
p124
(lp125
VMOV ESI,dword ptr [RBX]
p126
aVMOV EDI,0x308
p127
aVCALL 0x00102190
p128
aVMOV ESI,dword ptr [RBX]
p129
aVMOV EDI,0x22a
p130
aVCALL 0x00102190
p131
aVMOV ESI,dword ptr [RBX]
p132
aVMOV EDI,0x32d
p133
aVCALL 0x00102190
p134
aVMOVZX EAX,byte ptr [RBX + 0x1]
p135
aVMOV ESI,dword ptr [RBX]
p136
aVMOV EDI,0xde
p137
aVMOVZX EAX,byte ptr [R14 + RAX*0x1]
p138
aVMOV byte ptr [RSP + 0xf],AL
p139
aVCALL 0x00102190
p140
aVMOVZX EAX,byte ptr [RSP + 0xf]
p141
aVTEST AL,AL
p142
aVJS 0x001029c9
p143
asV00106091
p144
(lp145
VMOV EDI,0x30c
p146
aVCALL 0x001021a0
p147
aVCMP EAX,0x5573616c
p148
aVSETZ AL
p149
aVMOVZX EAX,AL
p150
aVIMUL EBX,EAX
p151
asV00103abd
p152
(lp153
VMOV RDX,0x7000a38200000000
p154
aVBT RDX,RBX
p155
aVJNC 0x0010409b
p156
asV001041b4
p157
(lp158
VCMP RAX,0x1
p159
aVJZ 0x001041ff
p160
asV00104904
p161
(lp162
VPOP RBX
p163
aVMOV dword ptr [0x00309058],0x1
p164
aVPOP RBP
p165
aVPOP R12
p166
aVRET
p167
asV00103810
p168
(lp169
VMOVZX EDX,byte ptr [RAX + 0x1]
p170
aVAND EDX,0xffffffdf
p171
aVCMP DL,0x42
p172
aVJNZ 0x001037f0
p173
asV001054ce
p174
(lp175
VADD RSP,0x8
p176
aVRET
p177
asV00105ca0
p178
(lp179
VTEST RDI,RDI
p180
aVPUSH R12
p181
aVMOV R12,RDI
p182
aVPUSH RBP
p183
aVPUSH RBX
p184
aVJZ 0x00105cd0
p185
asV00104bb0
p186
(lp187
VSUB RSP,0x48
p188
aVMOV R9,RCX
p189
aVMOV RCX,qword ptr [0x006d9b30]
p190
aVMOVDQA XMM0,xmmword ptr [0x006d9b00]
p191
aVMOV RAX,qword ptr FS:[0x28]
p192
aVMOV qword ptr [RSP + 0x38],RAX
p193
aVXOR EAX,EAX
p194
aVMOVAPS xmmword ptr [RSP],XMM0
p195
aVTEST RSI,RSI
p196
aVMOV qword ptr [RSP + 0x30],RCX
p197
aVMOV dword ptr [RSP],0x8
p198
aVMOVDQA XMM0,xmmword ptr [0x006d9b10]
p199
aVMOVAPS xmmword ptr [RSP + 0x10],XMM0
p200
aVMOVDQA XMM0,xmmword ptr [0x006d9b20]
p201
aVMOVAPS xmmword ptr [RSP + 0x20],XMM0
p202
aVJZ 0x00104c37
p203
asV00105ee0
p204
(lp205
VMOV EDI,0x331
p206
aVCALL 0x001021a0
p207
aVCMP EAX,0x3073616c
p208
aVSETZ AL
p209
aVMOVZX EAX,AL
p210
aVIMUL EBX,EAX
p211
aVJMP 0x00105d36
p212
asV001041a6
p213
(lp214
VCMP dword ptr [RSP + 0xc],0x2
p215
aVJNZ 0x001041ff
p216
asV00103aaf
p217
(lp218
VMOVZX EBX,byte ptr [R9 + RAX*0x1]
p219
aVCMP BL,0x3e
p220
aVJA 0x0010409b
p221
asV001043e6
p222
(lp223
VLEA RAX,[0x106ffd]
p224
aVMOV byte ptr [RSP + 0xb],0x1
p225
aVMOV byte ptr [RSP + 0xa],0x0
p226
aVMOV R11D,0x1
p227
aVXOR R15D,R15D
p228
aVMOV qword ptr [RSP + 0x38],RAX
p229
aVJMP 0x00103970
p230
asV001054d3
p231
(lp232
VCALL 0x00105530
p233
asV001032f0
p234
(lp235
VMOV qword ptr [RSP + 0x48],RBX
p236
aVSUB RBP,0x4
p237
aVMOV R12,RDX
p238
asV001065c0
p239
(lp240
VMOV RSI,R14
p241
aVCALL 0x001018e0
p242
aVMOV R13,qword ptr [RSP + 0x10]
p243
aVMOV RCX,qword ptr [RSP + 0x8]
p244
aVLEA RSI,[0x107728]
p245
aVXOR EAX,EAX
p246
aVMOV RDI,R14
p247
aVMOV RDX,R13
p248
aVCALL 0x00101810
p249
aVCMP EAX,0x1
p250
aVJLE 0x001066fd
p251
asV00106039
p252
(lp253
VMOV EDI,0x30a
p254
aVADD R13,RBX
p255
aVCALL 0x001021a0
p256
aVMOV EDI,0x30a
p257
aVMOV EBP,EAX
p258
aVCALL 0x001021a0
p259
aVCMP EAX,0x6c617357
p260
aVJZ 0x00106071
p261
asV00103cb0
p262
(lp263
VMOV EAX,0x6e
p264
aVJMP 0x00103c35
p265
asV00105181
p266
(lp267
VADD R9,0x1
p268
aVCMP R9,0xa
p269
aVJNZ 0x00105160
p270
asV00103edf
p271
(lp272
VLEA RSI,[0x106fff]
p273
aVXOR EDI,EDI
p274
aVMOV EDX,0x5
p275
aVCALL 0x00101740
p276
aVMOV RDI,RAX
p277
aVMOV qword ptr [RSP + 0x50],RAX
p278
aVLEA RAX,[0x106fff]
p279
aVCMP RDI,RAX
p280
aVJZ 0x00104420
p281
asV001056c6
p282
(lp283
VMOV ESI,0x30
p284
aVMOV RDI,R13
p285
aVMOV qword ptr [RSP + 0x8],RCX
p286
aVCALL 0x001017a0
p287
aVTEST RAX,RAX
p288
aVMOV RCX,qword ptr [RSP + 0x8]
p289
aVJZ 0x00105708
p290
asV00104090
p291
(lp292
VCMP byte ptr [RSP + 0xb],0x0
p293
aVJNZ 0x00103bc8
p294
asV001067b3
p295
(lp296
VLEA RDI,[RAX + 0xe]
p297
aVJMP 0x00106495
p298
asV00105b82
p299
(lp300
VMOV EDI,0x246
p301
aVCALL 0x001021a0
p302
aVCMP EAX,0x1b74616c
p303
aVSETZ AL
p304
aVMOVZX EAX,AL
p305
aVIMUL EBP,EAX
p306
asV00103ca4
p307
(lp308
VJMP 0x00103b70
p309
asV001058eb
p310
(lp311
VMOV R9D,0x1
p312
aVOR RBX,-0x1
p313
aVJMP 0x0010587f
p314
asV00102df0
p315
(lp316
VMOV R14,RDI
p317
aVMOV RDI,RBP
p318
aVMOV R12,RSI
p319
aVCALL 0x001018b0
p320
aVTEST RAX,RAX
p321
aVMOV qword ptr [R13],RAX
p322
aVJZ 0x00102ddd
p323
asV00106021
p324
(lp325
VMOV EDI,0x308
p326
aVCALL 0x001021a0
p327
aVCMP EAX,0x5973616c
p328
aVSETZ AL
p329
aVMOVZX EAX,AL
p330
aVIMUL EBX,EAX
p331
asV00105175
p332
(lp333
VMOV RAX,qword ptr [R11]
p334
aVTEST RAX,RAX
p335
aVMOV qword ptr [R8 + R9*0x8],RAX
p336
aVJZ 0x0010518b
p337
asV001023e9
p338
(lp339
VMOV RAX,qword ptr [RSP + 0x20]
p340
aVMOV R14,qword ptr [RSP + 0x30]
p341
aVMOV RDX,R15
p342
aVMOV R8,qword ptr [RSP + 0x28]
p343
aVMOV RSI,qword ptr [RSP + 0x10]
p344
aVLEA RDI,[RAX + RBP*0x8]
p345
aVMOV RCX,R14
p346
aVCALL 0x00102e60
p347
aVMOV RCX,qword ptr [RSP + 0x18]
p348
aVMOV RDX,qword ptr [RSP + 0x40]
p349
aVMOV ESI,0x1
p350
aVMOV RDI,R14
p351
aVMOV EBP,EAX
p352
aVCALL 0x00101900
p353
aVCMP qword ptr [RSP + 0x40],RAX
p354
aVJA 0x001024d0
p355
asV001034d8
p356
(lp357
VADD RBX,0x1
p358
aVSUB RBP,0x1
p359
aVMOV R12,RDX
p360
aVMOV qword ptr [RSP + 0x48],RBX
p361
aVJMP 0x00102ee3
p362
asV00103ecf
p363
(lp364
VADD R15,0x1
p365
aVXOR R10D,R10D
p366
aVJMP 0x00103e9c
p367
asV00102ddd
p368
(lp369
VPOP RBX
p370
aVMOV RAX,RBP
p371
aVPOP RBP
p372
aVPOP R12
p373
aVPOP R13
p374
aVPOP R14
p375
aVRET
p376
asV001058f7
p377
(lp378
VMOV R9D,0x1
p379
aVOR RBX,-0x1
p380
aVJMP 0x0010581f
p381
asV00104080
p382
(lp383
VXOR R10D,R10D
p384
aVJMP 0x00103a50
p385
asV00101cea
p386
(lp387
VMOV RDI,qword ptr [RBX + RAX*0x8]
p388
aVCALL 0x00104cf0
p389
aVLEA RSI,[0x10697b]
p390
aVMOV RBX,RAX
p391
aVMOV EDX,0x5
p392
aVXOR EDI,EDI
p393
aVCALL 0x00101740
p394
aVMOV RCX,RBX
p395
aVMOV RDX,RAX
p396
aVXOR ESI,ESI
p397
aVXOR EDI,EDI
p398
aVXOR EAX,EAX
p399
aVCALL 0x00101960
p400
asV001034d0
p401
(lp402
VCMP qword ptr [RSP + 0x10],0x0
p403
aVJZ 0x001034f0
p404
asV001021a0
p405
(lp406
VPUSH RBP
p407
aVPUSH RBX
p408
aVLEA RBX,[0x3090e0]
p409
aVMOV EBP,EDI
p410
aVMOV EDX,0x6c617661
p411
aVSUB RSP,0x8
p412
aVMOV EAX,dword ptr [RBX + RBP*0x4]
p413
aVSUB EDX,EDI
p414
aVCMP EDX,EAX
p415
aVJZ 0x001021d0
p416
asV00103eca
p417
(lp418
VMOV byte ptr [RCX + R15*0x1],0x5c
p419
asV00103ed8
p420
(lp421
VCMP dword ptr [RSP + 0xc],0x8
p422
aVJZ 0x00103f35
p423
asV00102be5
p424
(lp425
VMOV RAX,RCX
p426
aVSHR RAX,0x2
p427
aVLEA RAX,[RAX + RAX*0x2]
p428
aVCMP RAX,RSI
p429
aVJZ 0x00102d08
p430
asV00104dc0
p431
(lp432
VMOV R8,RCX
p433
aVMOV RCX,RDX
p434
aVLEA RDX,[0x10728c]
p435
aVMOV ESI,0x1
p436
aVXOR EAX,EAX
p437
aVCALL 0x001019e0
p438
aVJMP 0x00104d4c
p439
asV00106059
p440
(lp441
VMOV EDI,0x30a
p442
aVCALL 0x001021a0
p443
aVCMP EAX,0x5773616c
p444
aVSETZ AL
p445
aVMOVZX EAX,AL
p446
aVIMUL EBP,EAX
p447
asV00103cd0
p448
(lp449
VMOV EAX,0x72
p450
aVJMP 0x00103c35
p451
asV00102be0
p452
(lp453
VTEST CL,0x3
p454
aVJNZ 0x00102bf9
p455
asV00105b9a
p456
(lp457
VMOV EDI,0x247
p458
aVADD RBP,R13
p459
aVCALL 0x001021a0
p460
aVMOV EDI,0x247
p461
aVMOV EBX,EAX
p462
aVCALL 0x001021a0
p463
aVCMP EAX,0x6c61741a
p464
aVJZ 0x00105bd2
p465
asV001032c5
p466
(lp467
VMOV RBP,R13
p468
aVSUB RBP,qword ptr [RSP + 0x48]
p469
aVCMP byte ptr [RSP + 0x36],0x0
p470
aVMOV RDX,R12
p471
aVJZ 0x00102ef1
p472
asV001043b4
p473
(lp474
VMOV RDX,RAX
p475
asV001043b7
p476
(lp477
VMOVZX R12D,byte ptr [RSP + 0xa]
p478
aVJMP 0x0010425e
p479
asV001067d0
p480
(lp481
VPUSH R15
p482
aVPUSH R14
p483
aVMOV R15,RDX
p484
aVPUSH R13
p485
aVPUSH R12
p486
aVLEA R12,[0x308ad0]
p487
aVPUSH RBP
p488
aVLEA RBP,[0x308ad8]
p489
aVPUSH RBX
p490
aVMOV R13D,EDI
p491
aVMOV R14,RSI
p492
aVSUB RBP,R12
p493
aVSUB RSP,0x8
p494
aVSAR RBP,0x3
p495
aVCALL 0x00101650
p496
aVTEST RBP,RBP
p497
aVJZ 0x00106826
p498
asV001056e2
p499
(lp500
VMOVZX EAX,byte ptr [RCX + 0x1]
p501
aVCMP AL,0x44
p502
aVJZ 0x001056f6
p503
asV001021d0
p504
(lp505
VLEA RDX,[0x1069d0]
p506
aVMOV ECX,EDI
p507
aVMOV ESI,0x1
p508
aVMOV EDI,0x1
p509
aVXOR EAX,EAX
p510
aVCALL 0x001019a0
p511
aVMOV EAX,dword ptr [RBX + RBP*0x4]
p512
aVADD RSP,0x8
p513
aVPOP RBX
p514
aVPOP RBP
p515
aVRET
p516
asV0010409b
p517
(lp518
VMOV EBX,0x3f
p519
aVJMP 0x00103b30
p520
asV0010518b
p521
(lp522
VCALL 0x00104d10
p523
aVMOV RAX,qword ptr [RSP + 0x58]
p524
aVXOR RAX,qword ptr FS:[0x28]
p525
aVJNZ 0x001051a5
p526
asV001021bd
p527
(lp528
VBSWAP EDX
p529
aVCMP EAX,EDX
p530
aVJZ 0x001021d0
p531
asV00101ae9
p532
(lp533
VMOV RDI,qword ptr [0x003090a0]
p534
aVXOR R8D,R8D
p535
aVXOR EDX,EDX
p536
aVXOR ESI,ESI
p537
aVMOV RCX,R14
p538
aVCALL 0x00105570
p539
aVTEST EAX,EAX
p540
aVJZ 0x00101aa8
p541
asV00101830
p542
(lp543
VJMP qword ptr [0x00308ec8]
p544
asV00104db4
p545
(lp546
VJMP RAX
p547
asV001067bc
p548
(lp549
VCALL 0x00101770
p550
asV00105ea0
p551
(lp552
VMOV EDI,0x340
p553
aVCALL 0x001021a0
p554
aVCMP EAX,0x2173616c
p555
aVSETZ AL
p556
aVMOVZX EAX,AL
p557
aVIMUL EBX,EAX
p558
aVJMP 0x00105d7e
p559
asV00103cc0
p560
(lp561
VMOV EAX,0x61
p562
aVJMP 0x00103c47
p563
asV00101ae0
p564
(lp565
VCMP EAX,0x77
p566
aVJNZ 0x00101d1a
p567
asV001043a7
p568
(lp569
VADD RAX,0x1
p570
aVLEA RDX,[R14 + RAX*0x1]
p571
aVCMP RBP,RDX
p572
aVJA 0x001043a0
p573
asV00104a9b
p574
(lp575
VADD RSP,0x48
p576
aVRET
p577
asV001043a0
p578
(lp579
VCMP byte ptr [R8 + RAX*0x1],0x0
p580
aVJZ 0x001043b4
p581
asV001067c1
p582
(lp583
VLEA RDI,[RAX + 0xf]
p584
aVADD R12,0x1
p585
aVJMP 0x001064d8
p586
asV001021c3
p587
(lp588
VADD RSP,0x8
p589
aVPOP RBX
p590
aVPOP RBP
p591
aVRET
p592
asV00101acc
p593
(lp594
VCMP EAX,0x64
p595
aVJZ 0x00101b80
p596
asV001045e3
p597
(lp598
VCALL 0x001016b0
p599
asV0010626c
p600
(lp601
VMOV EDI,0x325
p602
aVADD RBP,R13
p603
aVCALL 0x001021a0
p604
aVMOV EDI,0x325
p605
aVMOV EBX,EAX
p606
aVCALL 0x001021a0
p607
aVCMP EAX,0x6c61733c
p608
aVJZ 0x001062a4
p609
asV001034f0
p610
(lp611
VSUB RDX,R12
p612
aVMOV qword ptr [RSP + 0x50],R12
p613
aVADD qword ptr [RSP + 0x40],RDX
p614
aVLEA R13,[RBX + RBP*0x1]
p615
aVJMP 0x001030ca
p616
asV00104da6
p617
(lp618
VLEA RDX,[0x107578]
p619
aVMOVSXD RAX,dword ptr [RDX + R12*0x4]
p620
aVADD RAX,RDX
p621
asV00104fe8
p622
(lp623
VMOV R15,qword ptr [RBX + 0x20]
p624
aVLEA RSI,[0x107410]
p625
aVMOV EDX,0x5
p626
aVXOR EDI,EDI
p627
aVMOV R14,qword ptr [RBX + 0x18]
p628
aVMOV R13,qword ptr [RBX + 0x10]
p629
aVMOV R12,qword ptr [RBX + 0x8]
p630
aVMOV RBX,qword ptr [RBX]
p631
aVCALL 0x00101740
p632
aVPUSH R15
p633
aVJMP 0x00104fb6
p634
asV00101ad5
p635
(lp636
VJLE 0x00101b40
p637
asV00101ad7
p638
(lp639
VCMP EAX,0x69
p640
aVJZ 0x00101b90
p641
asV001067ab
p642
(lp643
VCMP byte ptr [R13 + RAX*0x1 + -0x1],0x2f
p644
aVJNZ 0x001067c1
p645
asV00106479
p646
(lp647
VMOV RDI,RAX
p648
aVCALL 0x00101760
p649
aVTEST RAX,RAX
p650
aVMOV R12,RAX
p651
aVMOV R14,RAX
p652
aVJNZ 0x001067ab
p653
asV00105d7e
p654
(lp655
VMOV EDI,0x343
p656
aVADD RBP,RBX
p657
aVCALL 0x001021a0
p658
aVMOV EDI,0x343
p659
aVMOV EBX,EAX
p660
aVCALL 0x001021a0
p661
aVCMP EAX,0x6c61731e
p662
aVJNZ 0x00105e80
p663
asV00106474
p664
(lp665
VCMP byte ptr [RAX],0x0
p666
aVJZ 0x001064c0
p667
asV00104294
p668
(lp669
VCMP byte ptr [RSP + 0xb],0x0
p670
aVJNZ 0x001042c7
p671
asV00106233
p672
(lp673
VMOV EDI,0x324
p674
aVLEA R13,[RBX + RBP*0x1]
p675
aVCALL 0x001021a0
p676
aVMOV EDI,0x324
p677
aVMOV EBP,EAX
p678
aVCALL 0x001021a0
p679
aVCMP EAX,0x6c61733d
p680
aVJZ 0x0010626c
p681
asV00103b9d
p682
(lp683
VCMP byte ptr [R9 + 0x1],0x0
p684
aVSETNZ AL
p685
asV001058c7
p686
(lp687
VLEA RCX,[0x1076f8]
p688
aVLEA RSI,[0x1075e0]
p689
aVLEA RDI,[0x1075f8]
p690
aVMOV EDX,0x60
p691
aVCALL 0x001017e0
p692
asV00105140
p693
(lp694
VSUB RSP,0x68
p695
aVMOV R10,R8
p696
aVXOR R9D,R9D
p697
aVMOV RAX,qword ptr FS:[0x28]
p698
aVMOV qword ptr [RSP + 0x58],RAX
p699
aVXOR EAX,EAX
p700
aVMOV R8,RSP
p701
aVNOP dword ptr [RAX]
p702
asV00104051
p703
(lp704
VLEA RAX,[0x106ffb]
p705
aVMOV byte ptr [RSP + 0xb],0x0
p706
aVMOV byte ptr [RSP + 0xa],0x1
p707
aVMOV R11D,0x1
p708
aVMOV R15D,0x1
p709
aVMOV qword ptr [RSP + 0x38],RAX
p710
aVJMP 0x00103970
p711
asV001034a7
p712
(lp713
VCMP R14,RBX
p714
aVMOV EBP,dword ptr [R15]
p715
aVJA 0x00103058
p716
asV00102fec
p717
(lp718
VMOV RAX,qword ptr [RSP + 0x28]
p719
aVMOV EDI,0xde
p720
aVLEA R12,[RAX + RBX*0x8]
p721
aVCALL 0x001021a0
p722
aVMOV EDI,0xde
p723
aVMOV EBX,EAX
p724
aVCALL 0x001021a0
p725
aVCMP EAX,0x6c617583
p726
aVJZ 0x0010302a
p727
asV00105b49
p728
(lp729
VMOV EDI,0x240
p730
aVCALL 0x001021a0
p731
aVCMP EAX,0x2174616c
p732
aVSETZ AL
p733
aVMOVZX EAX,AL
p734
aVIMUL EBX,EAX
p735
asV0010403d
p736
(lp737
VTEST EBX,EBX
p738
aVJNZ 0x001043c2
p739
asV0010621b
p740
(lp741
VMOV EDI,0x31e
p742
aVCALL 0x001021a0
p743
aVCMP EAX,0x4373616c
p744
aVSETZ AL
p745
aVMOVZX EAX,AL
p746
aVIMUL EBX,EAX
p747
asV00103ea9
p748
(lp749
VCMP R15,R13
p750
aVJNC 0x00103eb2
p751
asV001058af
p752
(lp753
VMUL RSI
p754
aVJNO 0x0010573f
p755
asV001058ac
p756
(lp757
VXOR R8D,R8D
p758
asV001036cd
p759
(lp760
VMOV ESI,dword ptr [RBX]
p761
aVLEA RDX,[0x106963]
p762
aVMOV RCX,RAX
p763
aVXOR EDI,EDI
p764
aVXOR EAX,EAX
p765
aVCALL 0x00101960
p766
aVJMP 0x001036c2
p767
asV00104045
p768
(lp769
VTEST R13,R13
p770
aVJZ 0x00104051
p771
asV00104a3f
p772
(lp773
VMOV dword ptr [RSP],ESI
p774
aVMOV RCX,RSP
p775
aVMOV RSI,RAX
p776
aVMOV qword ptr [RSP + 0x4],0x0
p777
aVMOV qword ptr [RSP + 0xc],0x0
p778
aVMOV qword ptr [RSP + 0x14],0x0
p779
aVMOV qword ptr [RSP + 0x1c],0x0
p780
aVMOV qword ptr [RSP + 0x24],0x0
p781
aVMOV qword ptr [RSP + 0x2c],0x0
p782
aVMOV dword ptr [RSP + 0x34],0x0
p783
aVCALL 0x00104440
p784
aVMOV RDX,qword ptr [RSP + 0x38]
p785
aVXOR RDX,qword ptr FS:[0x28]
p786
aVJNZ 0x00104aa5
p787
asV00105379
p788
(lp789
VTEST RDI,RDI
p790
aVJNZ 0x00105398
p791
asV00105130
p792
(lp793
VADD R9,0x1
p794
aVCMP qword ptr [R8 + R9*0x8],0x0
p795
aVJNZ 0x00105130
p796
asV001058b8
p797
(lp798
VMOV R8D,0x1
p799
aVOR RAX,-0x1
p800
aVJMP 0x0010573f
p801
asV00105370
p802
(lp803
VTEST RSI,RSI
p804
aVPUSH RBX
p805
aVMOV RBX,RSI
p806
aVJNZ 0x0010537e
p807
asV00106460
p808
(lp809
VLEA RDI,[0x107718]
p810
aVCALL 0x00101690
p811
aVTEST RAX,RAX
p812
aVMOV R13,RAX
p813
aVJZ 0x001064c0
p814
asV00104281
p815
(lp816
VTEST R15,R15
p817
aVJZ 0x00103bcb
p818
asV0010317d
p819
(lp820
VMOV RAX,qword ptr [RSP + 0x20]
p821
aVMOV EDI,0x112
p822
aVLEA R14,[RAX + R12*0x8]
p823
aVCALL 0x001021a0
p824
aVMOV EDI,0x112
p825
aVMOV R12D,EAX
p826
aVCALL 0x001021a0
p827
aVCMP EAX,0x6c61754f
p828
aVJZ 0x001031bd
p829
asV00103b90
p830
(lp831
VCMP RBP,0x1
p832
aVSETNZ AL
p833
aVCMP RBP,-0x1
p834
aVJNZ 0x00103ba5
p835
asV00105129
p836
(lp837
VNOP dword ptr [RAX]
p838
asV00101cb1
p839
(lp840
VLEA RSI,[0x10698f]
p841
aVXOR EDI,EDI
p842
aVMOV EDX,0x5
p843
aVCALL 0x00101740
p844
aVMOV ESI,dword ptr [R12]
p845
aVMOV RDX,RAX
p846
aVMOV EDI,0x1
p847
aVXOR EAX,EAX
p848
aVCALL 0x00101960
p849
aVJMP 0x00101c40
p850
asV00102da0
p851
(lp852
VPUSH R14
p853
aVPUSH R13
p854
aVMOV R13,RDX
p855
aVLEA RDX,[RSI + 0x2]
p856
aVPUSH R12
p857
aVPUSH RBP
p858
aVPUSH RBX
p859
aVMOV RBX,-0x5555555555555555
p860
aVMOV RAX,RDX
p861
aVMUL RBX
p862
aVSHR RDX,1
p863
aVLEA RBX,[RDX*0x4]
p864
aVLEA RBP,[RBX + 0x1]
p865
aVCMP RSI,RBP
p866
aVJBE 0x00102df0
p867
asV00105168
p868
(lp869
VMOV R11D,EAX
p870
aVADD R11,qword ptr [R10 + 0x10]
p871
aVADD EAX,0x8
p872
aVMOV dword ptr [R10],EAX
p873
asV00106254
p874
(lp875
VMOV EDI,0x324
p876
aVCALL 0x001021a0
p877
aVCMP EAX,0x3d73616c
p878
aVSETZ AL
p879
aVMOVZX EAX,AL
p880
aVIMUL EBP,EAX
p881
asV00106495
p882
(lp883
VCALL 0x001018b0
p884
aVTEST RAX,RAX
p885
aVMOV RBP,RAX
p886
aVJNZ 0x00106548
p887
asV001056a7
p888
(lp889
VMOVSX ESI,R12B
p890
aVMOV RDI,R13
p891
aVMOV qword ptr [RSP + 0x8],RCX
p892
aVCALL 0x001017a0
p893
aVTEST RAX,RAX
p894
aVMOV RCX,qword ptr [RSP + 0x8]
p895
aVJZ 0x0010576c
p896
asV00106490
p897
(lp898
VMOV EDI,0xe
p899
asV001045b8
p900
(lp901
VXOR EDI,EDI
p902
aVMOV qword ptr [RSP + 0x10],RDX
p903
aVCALL 0x00105370
p904
aVMOVDQA XMM0,xmmword ptr [0x00309070]
p905
aVMOV RBX,RAX
p906
aVMOV qword ptr [0x00309060],RAX
p907
aVMOV RDX,qword ptr [RSP + 0x10]
p908
aVMOVUPS xmmword ptr [RAX],XMM0
p909
aVJMP 0x001044bd
p910
asV00105160
p911
(lp912
VMOV EAX,dword ptr [R10]
p913
aVCMP EAX,0x2f
p914
aVJA 0x001051aa
p915
asV00101cdc
p916
(lp917
VCMP EAX,0xffffff7e
p918
aVJNZ 0x00101d1a
p919
asV001058e6
p920
(lp921
VCALL 0x00101770
p922
asV00103ebb
p923
(lp924
VTEST R12B,R12B
p925
aVJNZ 0x00103e50
p926
asV001034c0
p927
(lp928
VMOV EBP,0x4
p929
aVMOV R14,RBX
p930
aVJMP 0x0010307f
p931
asV001023d1
p932
(lp933
VMOV EDI,0xfd
p934
aVCALL 0x001021a0
p935
aVCMP EAX,0x6475616c
p936
aVSETZ AL
p937
aVMOVZX EAX,AL
p938
aVIMUL EBP,EAX
p939
asV0010538b
p940
(lp941
VTEST RBX,RBX
p942
aVJNZ 0x001053a1
p943
asV00105b61
p944
(lp945
VMOV EDI,0x246
p946
aVLEA R13,[RBX + RBP*0x1]
p947
aVCALL 0x001021a0
p948
aVMOV EDI,0x246
p949
aVMOV EBP,EAX
p950
aVCALL 0x001021a0
p951
aVCMP EAX,0x6c61741b
p952
aVJZ 0x00105b9a
p953
asV00101aa8
p954
(lp955
VLEA RCX,[0x308ae0]
p956
aVLEA RDX,[0x106976]
p957
aVXOR R8D,R8D
p958
aVMOV RSI,RBX
p959
aVMOV EDI,EBP
p960
aVCALL 0x00101780
p961
aVCMP EAX,-0x1
p962
aVJZ 0x00101b9b
p963
asV0010429b
p964
(lp965
VMOVZX ECX,byte ptr [RAX]
p966
aVTEST CL,CL
p967
aVJZ 0x001042c7
p968
asV00104fb6
p969
(lp970
VPUSH R14
p971
aVMOV RDX,RAX
p972
aVMOV R9,R13
p973
aVMOV R8,R12
p974
aVMOV RCX,RBX
p975
aVMOV RDI,RBP
p976
aVMOV ESI,0x1
p977
aVXOR EAX,EAX
p978
aVCALL 0x001019e0
p979
aVPOP RAX
p980
aVPOP RDX
p981
aVADD RSP,0x28
p982
aVPOP RBX
p983
aVPOP RBP
p984
aVPOP R12
p985
aVPOP R13
p986
aVPOP R14
p987
aVPOP R15
p988
aVRET
p989
asV00102dd3
p990
(lp991
VMOV qword ptr [R13],0x0
p992
aVXOR EBP,EBP
p993
asV00103ec5
p994
(lp995
VCMP R15,R13
p996
aVJNC 0x00103ecf
p997
asV00103ec0
p998
(lp999
VTEST R10B,R10B
p1000
aVJZ 0x00103e9c
p1001
asV00101ce3
p1002
(lp1003
VXOR EDI,EDI
p1004
aVCALL 0x00102540
p1005
asV00105398
p1006
(lp1007
VCALL 0x001016a0
p1008
aVXOR EAX,EAX
p1009
aVPOP RBX
p1010
aVRET
p1011
asV00106004
p1012
(lp1013
VMOV EDI,0x308
p1014
aVCALL 0x001021a0
p1015
aVMOV EDI,0x308
p1016
aVMOV EBX,EAX
p1017
aVCALL 0x001021a0
p1018
aVCMP EAX,0x6c617359
p1019
aVJZ 0x00106039
p1020
asV00105390
p1021
(lp1022
VPOP RBX
p1023
aVRET
p1024
asV00103eae
p1025
(lp1026
VMOV byte ptr [RCX + R15*0x1],BL
p1027
asV001034b3
p1028
(lp1029
VMOV R14,RBX
p1030
aVJMP 0x0010307f
p1031
asV0010513b
p1032
(lp1033
VJMP 0x00104d10
p1034
asV0010404a
p1035
(lp1036
VMOV RAX,qword ptr [RSP]
p1037
aVMOV byte ptr [RAX],0x22
p1038
asV0010537e
p1039
(lp1040
VMOV RSI,RBX
p1041
aVCALL 0x00101910
p1042
aVTEST RAX,RAX
p1043
aVJNZ 0x00105390
p1044
asV0010428a
p1045
(lp1046
VMOV RAX,qword ptr [RSP + 0x38]
p1047
aVTEST RAX,RAX
p1048
aVJZ 0x001042c7
p1049
asV001023aa
p1050
(lp1051
VADD RBP,qword ptr [RSP + 0x8]
p1052
aVMOV EDI,0xfd
p1053
aVMOV qword ptr [RSP + 0x10],RBP
p1054
aVCALL 0x001021a0
p1055
aVMOV EDI,0xfd
p1056
aVMOV EBP,EAX
p1057
aVCALL 0x001021a0
p1058
aVCMP EAX,0x6c617564
p1059
aVJZ 0x001023e9
p1060
asV00103eb2
p1061
(lp1062
VMOVZX EBX,byte ptr [R9 + R14*0x1]
p1063
aVADD R15,0x1
p1064
asV00105f7a
p1065
(lp1066
VCMP qword ptr [RDI + 0x48],0x0
p1067
aVJNZ 0x00105f6a
p1068
asV00103164
p1069
(lp1070
VMOV EDI,0x114
p1071
aVCALL 0x001021a0
p1072
aVCMP EAX,0x4d75616c
p1073
aVSETZ AL
p1074
aVMOVZX EAX,AL
p1075
aVIMUL R12D,EAX
p1076
asV00103d9b
p1077
(lp1078
VCMP R15,R13
p1079
aVJNC 0x00103da9
p1080
asV00105340
p1081
(lp1082
VMOV RAX,RDI
p1083
aVMUL RSI
p1084
aVJO 0x0010534d
p1085
asV00104a19
p1086
(lp1087
VCALL 0x00101770
p1088
asV00102070
p1089
(lp1090
VADD R13,RBX
p1091
aVADD R14,RBX
p1092
aVCMP RBP,R13
p1093
aVJA 0x00102031
p1094
asV001036a5
p1095
(lp1096
VCALL 0x00104b80
p1097
aVMOV ESI,dword ptr [RBX]
p1098
aVLEA RDX,[0x106fa0]
p1099
aVMOV RCX,RAX
p1100
aVMOV R8,RBP
p1101
aVXOR EDI,EDI
p1102
aVXOR EAX,EAX
p1103
aVCALL 0x00101960
p1104
asV0010532e
p1105
(lp1106
VTEST RBX,RBX
p1107
aVJNZ 0x00105335
p1108
asV00104a14
p1109
(lp1110
VCALL 0x001016b0
p1111
asV0010641c
p1112
(lp1113
VCMP byte ptr [RBX],0x0
p1114
aVLEA RAX,[0x107703]
p1115
aVCMOVZ RBX,RAX
p1116
aVMOV RCX,qword ptr [RSP + 0x98]
p1117
aVXOR RCX,qword ptr FS:[0x28]
p1118
aVMOV RAX,RBX
p1119
aVJNZ 0x001067bc
p1120
asV0010447a
p1121
(lp1122
VCMP dword ptr [0x00309058],R15D
p1123
aVJA 0x001044df
p1124
asV00103b62
p1125
(lp1126
VADD R14,0x1
p1127
aVNOP word ptr CS:[RAX + RAX*0x1]
p1128
asV00105f81
p1129
(lp1130
VPUSH R12
p1131
aVPUSH RBP
p1132
aVMOV R12D,EDX
p1133
aVPUSH RBX
p1134
aVMOV RBP,RSI
p1135
aVMOV RBX,RDI
p1136
aVCALL 0x001018a0
p1137
aVMOV EDX,R12D
p1138
aVMOV RSI,RBP
p1139
aVMOV EDI,EAX
p1140
aVCALL 0x001017d0
p1141
aVCMP RAX,-0x1
p1142
aVJZ 0x00105fb2
p1143
asV00102fb4
p1144
(lp1145
VMOV EDI,0xeb
p1146
aVADD R14,R13
p1147
aVCALL 0x001021a0
p1148
aVMOV EDI,0xeb
p1149
aVMOV EBX,EAX
p1150
aVCALL 0x001021a0
p1151
aVCMP EAX,0x6c617576
p1152
aVJZ 0x00102fec
p1153
asV00101ec6
p1154
(lp1155
VTEST R14,R14
p1156
aVJNZ 0x00101f38
p1157
asV00104002
p1158
(lp1159
VTEST EBX,EBX
p1160
aVJNZ 0x001043e6
p1161
asV00104c3c
p1162
(lp1163
VCALL 0x00101770
p1164
asV00103396
p1165
(lp1166
VMOV RCX,qword ptr [RSP + 0x8]
p1167
aVMOV EDI,R13D
p1168
aVMOV RDX,R15
p1169
aVADD RDI,RBX
p1170
aVMOV RSI,R14
p1171
aVCALL 0x001028f0
p1172
aVTEST RBX,RBX
p1173
aVMOV R13D,EAX
p1174
aVJZ 0x001033cc
p1175
asV00105335
p1176
(lp1177
VCALL 0x00105530
p1178
asV00105333
p1179
(lp1180
VPOP RBX
p1181
aVRET
p1182
asV00105f6a
p1183
(lp1184
VJMP 0x00101980
p1185
asV00105570
p1186
(lp1187
VPUSH R15
p1188
aVPUSH R14
p1189
aVPUSH R13
p1190
aVPUSH R12
p1191
aVPUSH RBP
p1192
aVPUSH RBX
p1193
aVSUB RSP,0x28
p1194
aVMOV RAX,qword ptr FS:[0x28]
p1195
aVMOV qword ptr [RSP + 0x18],RAX
p1196
aVXOR EAX,EAX
p1197
aVCMP EDX,0x24
p1198
aVJA 0x001058c7
p1199
asV00104483
p1200
(lp1201
VLEA EDX,[R15 + 0x1]
p1202
aVLEA RAX,[0x309070]
p1203
aVMOV RSI,RDX
p1204
aVMOV R12,RDX
p1205
aVSHL RSI,0x4
p1206
aVCMP RBX,RAX
p1207
aVJZ 0x001045b8
p1208
asV00103b59
p1209
(lp1210
VTEST R10B,R10B
p1211
aVJNZ 0x00103c50
p1212
asV0010640f
p1213
(lp1214
VMOV RDI,R15
p1215
aVCALL 0x00101760
p1216
aVLEA RBX,[R15 + RAX*0x1 + 0x1]
p1217
asV00105d36
p1218
(lp1219
VMOV EDI,0x33f
p1220
aVADD RBX,RBP
p1221
aVCALL 0x001021a0
p1222
aVMOV EDI,0x33f
p1223
aVMOV EBP,EAX
p1224
aVCALL 0x001021a0
p1225
aVCMP EAX,0x6c617322
p1226
aVJNZ 0x00105ec0
p1227
asV0010422b
p1228
(lp1229
VMOV RDX,RBX
p1230
aVXOR R12D,0x1
p1231
aVMOVZX R10D,byte ptr [RSP + 0x6e]
p1232
aVMOVZX EBX,byte ptr [RSP + 0x6f]
p1233
aVAND R12B,byte ptr [RSP + 0xa]
p1234
aVMOV R9,R15
p1235
aVMOV R14,qword ptr [RSP + 0x20]
p1236
aVMOV R11,qword ptr [RSP + 0x60]
p1237
aVMOV R13,qword ptr [RSP + 0x58]
p1238
aVMOV R15,qword ptr [RSP + 0x70]
p1239
aVMOV RBP,qword ptr [RSP + 0x18]
p1240
asV0010337d
p1241
(lp1242
VMOV EDI,0x1
p1243
aVCALL 0x001021a0
p1244
aVCMP EAX,0x6076616c
p1245
aVSETZ AL
p1246
aVMOVZX EAX,AL
p1247
aVIMUL R13D,EAX
p1248
asV0010204e
p1249
(lp1250
VMOV RAX,qword ptr [RSP + 0x10]
p1251
aVMOV RCX,qword ptr [0x00309088]
p1252
aVMOV RDX,RBX
p1253
aVMOV ESI,0x1
p1254
aVLEA RDI,[RAX + R13*0x1]
p1255
aVCALL 0x00101900
p1256
aVCMP RBX,RAX
p1257
aVJA 0x00102098
p1258
asV0010313d
p1259
(lp1260
VMOV RAX,qword ptr [RSP + 0x8]
p1261
aVMOV EDI,0x114
p1262
aVLEA R15,[RAX + R12*0x8]
p1263
aVCALL 0x001021a0
p1264
aVMOV EDI,0x114
p1265
aVMOV R12D,EAX
p1266
aVCALL 0x001021a0
p1267
aVCMP EAX,0x6c61754d
p1268
aVJZ 0x0010317d
p1269
asV00102a60
p1270
(lp1271
VMOV ESI,dword ptr [RBX]
p1272
aVMOV EDI,0x30e
p1273
aVCALL 0x00102190
p1274
aVMOV ESI,dword ptr [RBX]
p1275
aVMOV EDI,0x230
p1276
aVCALL 0x00102190
p1277
aVMOVZX EAX,byte ptr [RBX + 0x2]
p1278
aVCMP byte ptr [R14 + RAX*0x1],0x0
p1279
aVJS 0x001029c5
p1280
asV00105f70
p1281
(lp1282
VMOV RAX,qword ptr [RDI + 0x20]
p1283
aVCMP qword ptr [RDI + 0x28],RAX
p1284
aVJNZ 0x00105f6a
p1285
asV00103d90
p1286
(lp1287
VCMP byte ptr [RSP + 0xb],0x0
p1288
aVJNZ 0x00103bc8
p1289
asV001049ac
p1290
(lp1291
VMOV dword ptr [RSP],ESI
p1292
aVMOV RCX,RSP
p1293
aVMOV RDX,-0x1
p1294
aVMOV RSI,RAX
p1295
aVMOV qword ptr [RSP + 0x4],0x0
p1296
aVMOV qword ptr [RSP + 0xc],0x0
p1297
aVMOV qword ptr [RSP + 0x14],0x0
p1298
aVMOV qword ptr [RSP + 0x1c],0x0
p1299
aVMOV qword ptr [RSP + 0x24],0x0
p1300
aVMOV qword ptr [RSP + 0x2c],0x0
p1301
aVMOV dword ptr [RSP + 0x34],0x0
p1302
aVCALL 0x00104440
p1303
aVMOV RCX,qword ptr [RSP + 0x38]
p1304
aVXOR RCX,qword ptr FS:[0x28]
p1305
aVJNZ 0x00104a19
p1306
asV00102098
p1307
(lp1308
VLEA RSI,[0x106884]
p1309
aVXOR EDI,EDI
p1310
aVMOV EDX,0x5
p1311
aVCALL 0x00101740
p1312
aVMOV qword ptr [RSP + 0x20],RAX
p1313
aVCALL 0x001016c0
p1314
aVMOV RDX,qword ptr [RSP + 0x20]
p1315
aVMOV ESI,dword ptr [RAX]
p1316
aVMOV EDI,0x1
p1317
aVXOR EAX,EAX
p1318
aVCALL 0x00101960
p1319
aVJMP 0x00102070
p1320
asV00106698
p1321
(lp1322
VTEST R12,R12
p1323
aVJZ 0x0010678f
p1324
asV00105d5a
p1325
(lp1326
VMOV EDI,0x340
p1327
aVADD RBP,RBX
p1328
aVCALL 0x001021a0
p1329
aVMOV EDI,0x340
p1330
aVMOV EBX,EAX
p1331
aVCALL 0x001021a0
p1332
aVCMP EAX,0x6c617321
p1333
aVJNZ 0x00105ea0
p1334
asV00103b7d
p1335
(lp1336
VADD R15,0x1
p1337
aVJMP 0x00103980
p1338
asV00102a8e
p1339
(lp1340
VCMP qword ptr [RSP],0x3
p1341
aVJZ 0x001029c5
p1342
asV00105120
p1343
(lp1344
VXOR R9D,R9D
p1345
aVCMP qword ptr [R8],0x0
p1346
aVJZ 0x0010513b
p1347
asV00104270
p1348
(lp1349
VCMP dword ptr [RSP + 0xc],0x2
p1350
aVMOV R12,R9
p1351
aVSETZ AL
p1352
aVTEST byte ptr [RSP + 0xb],AL
p1353
aVJZ 0x0010428a
p1354
asV001036c2
p1355
(lp1356
VMOV EDI,dword ptr [0x00309018]
p1357
aVCALL 0x001016e0
p1358
asV00105b29
p1359
(lp1360
VMOV EDI,0x240
p1361
aVADD RBP,RBX
p1362
aVCALL 0x001021a0
p1363
aVMOV EDI,0x240
p1364
aVMOV EBX,EAX
p1365
aVCALL 0x001021a0
p1366
aVCMP EAX,0x6c617421
p1367
aVJZ 0x00105b61
p1368
asV00101edc
p1369
(lp1370
VTEST AL,0x20
p1371
aVJZ 0x00101f0c
p1372
asV001058a0
p1373
(lp1374
VMOV RAX,RBX
p1375
aVMUL RSI
p1376
aVJO 0x00105951
p1377
asV0010425e
p1378
(lp1379
VCMP RDX,0x1
p1380
aVJA 0x00103e3d
p1381
asV0010667f
p1382
(lp1383
VLEA RCX,[RAX + 0x2]
p1384
aVLEA RDI,[RAX + 0x3]
p1385
aVMOV qword ptr [RSP],RCX
p1386
aVCALL 0x001018b0
p1387
aVMOV RDX,qword ptr [RSP + 0x18]
p1388
aVMOV R12,RAX
p1389
asV00102a99
p1390
(lp1391
VCMP byte ptr [RBX + 0x3],0x3d
p1392
aVJNZ 0x00102b28
p1393
asV0010534d
p1394
(lp1395
VSUB RSP,0x8
p1396
aVCALL 0x00105530
p1397
asV0010207b
p1398
(lp1399
VMOV R13,R14
p1400
aVMOV RBX,qword ptr [RSP + 0x30]
p1401
aVMOV R14,qword ptr [RSP + 0x28]
p1402
aVMOV RBP,qword ptr [RSP + 0x38]
p1403
aVJMP 0x00101fc0
p1404
asV00102fd4
p1405
(lp1406
VMOV EDI,0xeb
p1407
aVCALL 0x001021a0
p1408
aVCMP EAX,0x7675616c
p1409
aVSETZ AL
p1410
aVMOVZX EAX,AL
p1411
aVIMUL EBX,EAX
p1412
asV001027fe
p1413
(lp1414
VLEA RSI,[0x106e20]
p1415
aVXOR EDI,EDI
p1416
aVMOV EDX,0x5
p1417
aVCALL 0x00101740
p1418
aVMOV RCX,RBX
p1419
aVMOV RSI,RAX
p1420
aVMOV RDX,R12
p1421
aVMOV EDI,0x1
p1422
aVXOR EAX,EAX
p1423
aVCALL 0x00101940
p1424
aVJMP 0x00102591
p1425
asV00105117
p1426
(lp1427
VCALL 0x001016b0
p1428
asV00104268
p1429
(lp1430
VJMP 0x00103e2e
p1431
asV00101ee0
p1432
(lp1433
VLEA RSI,[0x106890]
p1434
aVMOV EDX,0x5
p1435
aVXOR EDI,EDI
p1436
aVCALL 0x00101740
p1437
aVMOV RBX,RAX
p1438
aVCALL 0x001016c0
p1439
aVMOV ESI,dword ptr [RAX]
p1440
aVMOV RDX,RBX
p1441
aVMOV EDI,0x1
p1442
aVXOR EAX,EAX
p1443
aVCALL 0x00101960
p1444
asV00105597
p1445
(lp1446
VLEA RAX,[RSP + 0x10]
p1447
aVMOV R15,RSI
p1448
aVTEST RSI,RSI
p1449
aVMOV RBP,RDI
p1450
aVMOV dword ptr [RSP + 0x8],EDX
p1451
aVMOV R14,RCX
p1452
aVMOV R13,R8
p1453
aVCMOVZ R15,RAX
p1454
aVCALL 0x001016c0
p1455
aVMOV dword ptr [RAX],0x0
p1456
aVMOV R12,RAX
p1457
aVMOVZX EBX,byte ptr [RBP]
p1458
aVCALL 0x00101a10
p1459
aVMOV EDX,dword ptr [RSP + 0x8]
p1460
aVMOV RSI,qword ptr [RAX]
p1461
aVMOV RAX,RBP
p1462
aVJMP 0x001055e7
p1463
asV00106444
p1464
(lp1465
VADD RSP,0xa8
p1466
aVPOP RBX
p1467
aVPOP RBP
p1468
aVPOP R12
p1469
aVPOP R13
p1470
aVPOP R14
p1471
aVPOP R15
p1472
aVRET
p1473
asV0010400f
p1474
(lp1475
VMOV RAX,qword ptr [RSP]
p1476
aVMOV byte ptr [RAX],0x27
p1477
asV00101ecb
p1478
(lp1479
VCMP qword ptr [RSP + 0x8],0x0
p1480
aVJZ 0x00101edc
p1481
asV00102a87
p1482
(lp1483
VCMP qword ptr [R13],0x0
p1484
aVJNZ 0x00102ad0
p1485
asV0010400a
p1486
(lp1487
VTEST R13,R13
p1488
aVJZ 0x00104016
p1489
asV00105b11
p1490
(lp1491
VMOV EDI,0x23d
p1492
aVCALL 0x001021a0
p1493
aVCMP EAX,0x2474616c
p1494
aVSETZ AL
p1495
aVMOVZX EAX,AL
p1496
aVIMUL EBX,EAX
p1497
asV00103b75
p1498
(lp1499
VMOV RAX,qword ptr [RSP]
p1500
aVMOV byte ptr [RAX + R15*0x1],BL
p1501
asV00104a20
p1502
(lp1503
VSUB RSP,0x48
p1504
aVMOV RAX,RDX
p1505
aVMOV RDX,RCX
p1506
aVMOV RCX,qword ptr FS:[0x28]
p1507
aVMOV qword ptr [RSP + 0x38],RCX
p1508
aVXOR ECX,ECX
p1509
aVCMP ESI,0x8
p1510
aVJZ 0x00104aa0
p1511
asV00103b70
p1512
(lp1513
VCMP R15,R13
p1514
aVJNC 0x00103b7d
p1515
asV00104a0f
p1516
(lp1517
VADD RSP,0x48
p1518
aVRET
p1519
asV00104016
p1520
(lp1521
VLEA RAX,[0x106ffd]
p1522
aVMOV byte ptr [RSP + 0xb],0x0
p1523
aVMOV byte ptr [RSP + 0xa],0x0
p1524
aVMOV R11D,0x1
p1525
aVMOV R15D,0x1
p1526
aVMOV qword ptr [RSP + 0x38],RAX
p1527
aVJMP 0x00103970
p1528
asV00101ed3
p1529
(lp1530
VTEST R13,R13
p1531
aVJNZ 0x001020ca
p1532
asV00105348
p1533
(lp1534
VMOV RDI,RAX
p1535
aVJMP 0x00105320
p1536
asV00104c0a
p1537
(lp1538
VMOV qword ptr [RSP + 0x28],RSI
p1539
aVMOV qword ptr [RSP + 0x30],RDX
p1540
aVMOV RCX,RSP
p1541
aVMOV RDX,R8
p1542
aVMOV RSI,R9
p1543
aVCALL 0x00104440
p1544
aVMOV RDI,qword ptr [RSP + 0x38]
p1545
aVXOR RDI,qword ptr FS:[0x28]
p1546
aVJNZ 0x00104c3c
p1547
asV00103124
p1548
(lp1549
VMOV EDI,0x116
p1550
aVCALL 0x001021a0
p1551
aVCMP EAX,0x4b75616c
p1552
aVSETZ AL
p1553
aVMOVZX EAX,AL
p1554
aVIMUL R12D,EAX
p1555
asV00106630
p1556
(lp1557
VMOV ESI,dword ptr [R13]
p1558
aVADD R13,0x4
p1559
aVLEA EAX,[RSI + -0x1010101]
p1560
aVNOT ESI
p1561
aVAND EAX,ESI
p1562
aVAND EAX,0x80808080
p1563
aVJZ 0x00106630
p1564
asV00103d5b
p1565
(lp1566
VCMP byte ptr [RSP + 0xb],0x0
p1567
aVJZ 0x001040a8
p1568
asV00102270
p1569
(lp1570
VMOV EAX,dword ptr [R13]
p1571
aVADD RBX,RBP
p1572
aVTEST AL,0x20
p1573
aVJNZ 0x00102310
p1574
asV00102031
p1575
(lp1576
VMOV R8,qword ptr [RSP + 0x8]
p1577
aVMOV RAX,RBP
p1578
aVSUB RAX,R13
p1579
aVSUB R8,R14
p1580
aVCMP R8,RAX
p1581
aVCMOVBE RAX,R8
p1582
aVTEST RAX,RAX
p1583
aVMOV RBX,RAX
p1584
aVJZ 0x00102010
p1585
asV001027b9
p1586
(lp1587
VLEA RSI,[0x106e00]
p1588
aVXOR EDI,EDI
p1589
aVMOV EDX,0x5
p1590
aVCALL 0x00101740
p1591
aVLEA RCX,[0x1068a9]
p1592
aVLEA RDX,[0x106d90]
p1593
aVMOV RSI,RAX
p1594
aVMOV EDI,0x1
p1595
aVXOR EAX,EAX
p1596
aVCALL 0x00101940
p1597
aVCMP R12,RBX
p1598
aVLEA RCX,[0x1068cc]
p1599
aVLEA RBX,[0x1072d9]
p1600
aVCMOVZ RBX,RCX
p1601
asV0010201e
p1602
(lp1603
VLEA RDX,[RAX + 0x1]
p1604
aVMOV qword ptr [R15 + 0x28],RDX
p1605
aVMOV byte ptr [RAX],0xa
p1606
asV00103d66
p1607
(lp1608
VTEST R11,R11
p1609
aVJZ 0x00103bc8
p1610
asV00102c74
p1611
(lp1612
VSUB RSI,0x3
p1613
aVJZ 0x00102c7e
p1614
asV0010576c
p1615
(lp1616
VMOV qword ptr [R14],RBX
p1617
aVOR EBP,0x2
p1618
aVJMP 0x0010564d
p1619
asV00103b23
p1620
(lp1621
VADD R15,0x4
p1622
aVMOV R14,RAX
p1623
aVNOP word ptr [RAX + RAX*0x1]
p1624
asV00105f40
p1625
(lp1626
VMOV RDI,R12
p1627
aVMOV EDX,0x1
p1628
aVXOR ESI,ESI
p1629
aVCALL 0x00105f60
p1630
aVPOP RBX
p1631
aVMOV RDI,R12
p1632
aVPOP RBP
p1633
aVPOP R12
p1634
aVJMP 0x001018c0
p1635
asV00101b80
p1636
(lp1637
VMOV R13D,0x1
p1638
aVJMP 0x00101aa8
p1639
asV00102029
p1640
(lp1641
VXOR R14D,R14D
p1642
asV00102c5f
p1643
(lp1644
VAND EAX,0x3f
p1645
aVCMP RCX,0x4
p1646
aVMOVZX EAX,byte ptr [R9 + RAX*0x1]
p1647
aVMOV byte ptr [RDX + 0x3],AL
p1648
aVJZ 0x00102d02
p1649
asV00102268
p1650
(lp1651
VXOR EBX,EBX
p1652
aVJMP 0x00102299
p1653
asV00105777
p1654
(lp1655
VXOR EDI,EDI
p1656
aVCMP byte ptr [RCX + 0x2],0x42
p1657
aVMOV ESI,0x400
p1658
aVSETZ DIL
p1659
aVLEA EDI,[RDI + RDI*0x1 + 0x1]
p1660
aVJMP 0x00105712
p1661
asV00103f8c
p1662
(lp1663
VMOV byte ptr [RSP + 0xb],0x0
p1664
aVMOV byte ptr [RSP + 0xa],0x0
p1665
aVXOR R11D,R11D
p1666
aVMOV qword ptr [RSP + 0x38],0x0
p1667
aVXOR R15D,R15D
p1668
aVJMP 0x00103970
p1669
asV001029e8
p1670
(lp1671
VMOV ESI,dword ptr [RBX]
p1672
aVMOV EDI,0x30a
p1673
aVADD R15,0x1
p1674
aVCALL 0x00102190
p1675
aVMOV ESI,dword ptr [RBX]
p1676
aVMOV EDI,0x22c
p1677
aVCALL 0x00102190
p1678
aVMOV ESI,dword ptr [RBX]
p1679
aVMOV EDI,0x32f
p1680
aVCALL 0x00102190
p1681
aVMOVZX EAX,byte ptr [RBX]
p1682
aVMOV ESI,dword ptr [RBX]
p1683
aVMOV EDI,0x30c
p1684
aVMOVSX EAX,byte ptr [R14 + RAX*0x1]
p1685
aVLEA EBP,[RAX*0x4]
p1686
aVCALL 0x00102190
p1687
aVMOV ESI,dword ptr [RBX]
p1688
aVMOV EDI,0x22e
p1689
aVCALL 0x00102190
p1690
aVMOV ESI,dword ptr [RBX]
p1691
aVMOV EDI,0x331
p1692
aVCALL 0x00102190
p1693
aVMOVZX EAX,byte ptr [RBX + 0x1]
p1694
aVMOVZX EAX,byte ptr [R14 + RAX*0x1]
p1695
aVSAR AL,0x4
p1696
aVOR EAX,EBP
p1697
aVMOV byte ptr [R15 + -0x1],AL
p1698
aVSUB qword ptr [R13],0x1
p1699
aVJMP 0x001029a9
p1700
asV00104440
p1701
(lp1702
VPUSH R15
p1703
aVPUSH R14
p1704
aVMOVSXD R15,EDI
p1705
aVPUSH R13
p1706
aVPUSH R12
p1707
aVMOV R14,RDX
p1708
aVPUSH RBP
p1709
aVPUSH RBX
p1710
aVMOV RBP,RCX
p1711
aVSUB RSP,0x28
p1712
aVMOV qword ptr [RSP + 0x8],RSI
p1713
aVCALL 0x001016c0
p1714
aVMOV R13,RAX
p1715
aVMOV EAX,dword ptr [RAX]
p1716
aVTEST R15D,R15D
p1717
aVMOV RBX,qword ptr [0x00309060]
p1718
aVMOV dword ptr [RSP + 0x18],EAX
p1719
aVJS 0x001045e3
p1720
asV00103b19
p1721
(lp1722
VMOV RDI,qword ptr [RSP]
p1723
aVMOV byte ptr [RDI + R15*0x1 + 0x3],0x3f
p1724
asV001029e0
p1725
(lp1726
VXOR EAX,EAX
p1727
aVRET
p1728
asV00104c05
p1729
(lp1730
VTEST RDX,RDX
p1731
aVJZ 0x00104c37
p1732
asV00103b10
p1733
(lp1734
VLEA RDX,[R15 + 0x3]
p1735
aVCMP R13,RDX
p1736
aVJBE 0x00103b23
p1737
asV00103d50
p1738
(lp1739
VCMP byte ptr [RSP + 0xa],0x0
p1740
aVJZ 0x001040a8
p1741
asV001029cb
p1742
(lp1743
VADD RSP,0x18
p1744
aVPOP RBX
p1745
aVPOP RBP
p1746
aVPOP R12
p1747
aVPOP R13
p1748
aVPOP R14
p1749
aVPOP R15
p1750
aVRET
p1751
asV00104438
p1752
(lp1753
VCALL 0x001016b0
p1754
asV00102c8f
p1755
(lp1756
VTEST RCX,RCX
p1757
aVJZ 0x00102d88
p1758
asV00102299
p1759
(lp1760
VMOV RAX,qword ptr [RSP + 0x8]
p1761
aVMOV EDX,0x1000
p1762
aVMOV RCX,R13
p1763
aVSUB RDX,RBX
p1764
aVMOV ESI,0x1
p1765
aVLEA RDI,[RAX + RBX*0x1]
p1766
aVCALL 0x00101700
p1767
aVCMP byte ptr [RSP + 0x3f],0x0
p1768
aVMOV RBP,RAX
p1769
aVMOV qword ptr [RSP + 0x40],RAX
p1770
aVJZ 0x00102270
p1771
asV00103b3b
p1772
(lp1773
VMOV RDX,qword ptr [RSP + 0x30]
p1774
aVTEST RDX,RDX
p1775
aVJZ 0x00103b59
p1776
asV00101b9b
p1777
(lp1778
VMOVSXD RAX,dword ptr [0x00309098]
p1779
aVMOV EDX,EBP
p1780
aVSUB EDX,EAX
p1781
aVSUB EDX,0x1
p1782
aVJG 0x00101cea
p1783
asV00105320
p1784
(lp1785
VPUSH RBX
p1786
aVMOV RBX,RDI
p1787
aVCALL 0x001018b0
p1788
aVTEST RAX,RAX
p1789
aVJNZ 0x00105333
p1790
asV00102291
p1791
(lp1792
VTEST EDX,EDX
p1793
aVJNZ 0x00102358
p1794
asV001038c0
p1795
(lp1796
VPUSH R15
p1797
aVPUSH R14
p1798
aVMOV R14D,R8D
p1799
aVPUSH R13
p1800
aVPUSH R12
p1801
aVMOV R13,RSI
p1802
aVPUSH RBP
p1803
aVPUSH RBX
p1804
aVMOV EBX,R9D
p1805
aVMOV R12,RDX
p1806
aVMOV RBP,RCX
p1807
aVAND EBX,0x2
p1808
aVSUB RSP,0xa8
p1809
aVMOV RAX,qword ptr [RSP + 0xe0]
p1810
aVMOV qword ptr [RSP],RDI
p1811
aVMOV dword ptr [RSP + 0xc],R8D
p1812
aVMOV dword ptr [RSP + 0x68],R9D
p1813
aVMOV qword ptr [RSP + 0x30],RAX
p1814
aVMOV RAX,qword ptr [RSP + 0xe8]
p1815
aVMOV qword ptr [RSP + 0x50],RAX
p1816
aVMOV RAX,qword ptr [RSP + 0xf0]
p1817
aVMOV qword ptr [RSP + 0x48],RAX
p1818
aVMOV RAX,qword ptr FS:[0x28]
p1819
aVMOV qword ptr [RSP + 0x98],RAX
p1820
aVXOR EAX,EAX
p1821
aVCALL 0x00101750
p1822
aVCMP R14D,0x8
p1823
aVMOV qword ptr [RSP + 0x40],RAX
p1824
aVJA 0x00104438
p1825
asV00104c37
p1826
(lp1827
VCALL 0x001016b0
p1828
asV00103b45
p1829
(lp1830
VMOV EAX,EBX
p1831
aVSHR AL,0x5
p1832
aVMOVZX EAX,AL
p1833
aVMOV EAX,dword ptr [RDX + RAX*0x4]
p1834
aVBT EAX,EBX
p1835
aVJC 0x00103c50
p1836
asV0010578f
p1837
(lp1838
VMOV EDX,0x2
p1839
aVMOV RAX,RDX
p1840
aVMUL RBX
p1841
aVJO 0x00105836
p1842
asV0010227f
p1843
(lp1844
VMOV EDX,EAX
p1845
aVAND EDX,0x10
p1846
aVCMP RBX,0xfff
p1847
aVJA 0x00102358
p1848
asV00102c98
p1849
(lp1850
VMOVZX EAX,byte ptr [RDI]
p1851
aVMOV R8D,EAX
p1852
aVSHR R8B,0x2
p1853
aVAND R8D,0x3f
p1854
aVCMP RCX,0x1
p1855
aVMOVZX R8D,byte ptr [R9 + R8*0x1]
p1856
aVMOV byte ptr [RDX],R8B
p1857
aVJZ 0x00102d02
p1858
asV00104c32
p1859
(lp1860
VADD RSP,0x48
p1861
aVRET
p1862
asV00105f60
p1863
(lp1864
VMOV RAX,qword ptr [RDI + 0x8]
p1865
aVCMP qword ptr [RDI + 0x10],RAX
p1866
aVJZ 0x00105f70
p1867
asV00103d80
p1868
(lp1869
VCMP dword ptr [RSP + 0xc],0x2
p1870
aVMOV EBX,0x27
p1871
aVJNZ 0x00103b30
p1872
asV00101ea5
p1873
(lp1874
VLEA RDI,[RBP + R14*0x1]
p1875
aVMOV RDX,R12
p1876
aVMOV RCX,RBX
p1877
aVSUB RDX,R14
p1878
aVMOV ESI,0x1
p1879
aVCALL 0x00101700
p1880
aVADD R14,RAX
p1881
aVMOV EAX,dword ptr [RBX]
p1882
aVTEST AL,0x30
p1883
aVJZ 0x00101e98
p1884
asV00106649
p1885
(lp1886
VMOV ESI,EAX
p1887
aVMOV qword ptr [RSP + 0x18],RDX
p1888
aVSHR ESI,0x10
p1889
aVTEST EAX,0x8080
p1890
aVCMOVZ EAX,ESI
p1891
aVLEA RSI,[R13 + 0x2]
p1892
aVMOV ECX,EAX
p1893
aVCMOVZ R13,RSI
p1894
aVADD CL,AL
p1895
aVSBB R13,0x3
p1896
aVSUB R13,qword ptr [RSP + 0x8]
p1897
aVCMP qword ptr [RSP],0x0
p1898
aVLEA RAX,[RDX + R13*0x1]
p1899
aVJNZ 0x0010676a
p1900
asV00106408
p1901
(lp1902
VCMP byte ptr [R15 + 0x1],0x0
p1903
aVJNZ 0x001063d0
p1904
asV00103d6f
p1905
(lp1906
VADD R14,0x1
p1907
aVMOV EBX,0x5c
p1908
aVJMP 0x00103b70
p1909
asV00106402
p1910
(lp1911
VCMP BPL,0x2a
p1912
aVJNZ 0x001063d0
p1913
asV00102c7e
p1914
(lp1915
VADD RDX,0x4
p1916
aVSUB RCX,0x4
p1917
asV00102c7a
p1918
(lp1919
VADD RDI,0x3
p1920
asV00104e68
p1921
(lp1922
VMOV R10,qword ptr [RBX + 0x40]
p1923
aVMOV R9,qword ptr [RBX + 0x38]
p1924
aVLEA RSI,[0x1074c0]
p1925
aVMOV RAX,qword ptr [RBX + 0x10]
p1926
aVMOV R8,qword ptr [RBX + 0x8]
p1927
aVMOV EDX,0x5
p1928
aVMOV R13,qword ptr [RBX + 0x30]
p1929
aVMOV R12,qword ptr [RBX + 0x28]
p1930
aVMOV R15,qword ptr [RBX + 0x20]
p1931
aVMOV R14,qword ptr [RBX + 0x18]
p1932
aVMOV RBX,qword ptr [RBX]
p1933
aVMOV qword ptr [RSP + 0x18],R10
p1934
aVMOV qword ptr [RSP + 0x10],R9
p1935
aVMOV qword ptr [RSP],RAX
p1936
aVMOV qword ptr [RSP + 0x8],R8
p1937
asV0010335c
p1938
(lp1939
VMOV EDI,0x1
p1940
aVADD R14,RBP
p1941
aVCALL 0x001021a0
p1942
aVMOV EDI,0x1
p1943
aVMOV R13D,EAX
p1944
aVCALL 0x001021a0
p1945
aVCMP EAX,0x6c617660
p1946
aVJZ 0x00103396
p1947
asV00105d12
p1948
(lp1949
VMOV EDI,0x331
p1950
aVADD RBP,RBX
p1951
aVCALL 0x001021a0
p1952
aVMOV EDI,0x331
p1953
aVMOV EBX,EAX
p1954
aVCALL 0x001021a0
p1955
aVCMP EAX,0x6c617330
p1956
aVJNZ 0x00105ee0
p1957
asV0010202c
p1958
(lp1959
VCMP RBP,R13
p1960
aVJBE 0x0010207b
p1961
asV00102c86
p1962
(lp1963
VTEST RSI,RSI
p1964
aVJZ 0x00102d88
p1965
asV00103b30
p1966
(lp1967
VCMP byte ptr [RSP + 0xa],0x0
p1968
aVJZ 0x00103c90
p1969
asV00101b90
p1970
(lp1971
VMOV R12D,0x1
p1972
aVJMP 0x00101aa8
p1973
asV00103560
p1974
(lp1975
VPUSH R14
p1976
aVPUSH R13
p1977
aVMOV R14,RDX
p1978
aVPUSH R12
p1979
aVPUSH RBP
p1980
aVMOV R12,RDI
p1981
aVPUSH RBX
p1982
aVMOV R13,RSI
p1983
aVMOV RBX,RCX
p1984
aVMOV RBP,R8
p1985
aVSUB RSP,0x20
p1986
aVMOV RAX,qword ptr FS:[0x28]
p1987
aVMOV qword ptr [RSP + 0x18],RAX
p1988
aVXOR EAX,EAX
p1989
aVMOV RAX,RDX
p1990
aVSHR RAX,0x2
p1991
aVLEA RDI,[RAX + RAX*0x2 + 0x3]
p1992
aVMOV qword ptr [RSP + 0x10],RDI
p1993
aVCALL 0x001018b0
p1994
aVTEST RAX,RAX
p1995
aVMOV qword ptr [RBX],RAX
p1996
aVJZ 0x001035d8
p1997
asV001029b0
p1998
(lp1999
VCMP byte ptr [RBX + 0x2],0x3d
p2000
aVJNZ 0x00102a60
p2001
asV0010572e
p2002
(lp2003
VJMP RAX
p2004
asV0010354d
p2005
(lp2006
VCALL 0x00101770
p2007
asV00103f66
p2008
(lp2009
VTEST EBX,EBX
p2010
aVMOV RBX,qword ptr [RSP + 0x48]
p2011
aVSETNZ byte ptr [RSP + 0xb]
p2012
aVMOV RDI,RBX
p2013
aVCALL 0x00101760
p2014
aVMOV qword ptr [RSP + 0x38],RBX
p2015
aVMOV R11,RAX
p2016
aVMOV byte ptr [RSP + 0xa],0x1
p2017
aVJMP 0x00103970
p2018
asV00103d24
p2019
(lp2020
VLEA RAX,[R14 + 0x1]
p2021
aVLEA RDX,[R15 + 0x1]
p2022
aVCMP RAX,RBP
p2023
aVJNC 0x00103d42
p2024
asV001018c0
p2025
(lp2026
VJMP qword ptr [0x00308f10]
p2027
asV00105f00
p2028
(lp2029
VMOV EDI,0x32f
p2030
aVCALL 0x001021a0
p2031
aVCMP EAX,0x3273616c
p2032
aVSETZ AL
p2033
aVMOVZX EAX,AL
p2034
aVIMUL EBX,EAX
p2035
aVJMP 0x00105d12
p2036
asV00101d83
p2037
(lp2038
VPOP RBP
p2039
aVJMP RAX
p2040
asV00101b40
p2041
(lp2042
VCMP EAX,0xffffff7d
p2043
aVJNZ 0x00101cdc
p2044
asV00106826
p2045
(lp2046
VADD RSP,0x8
p2047
aVPOP RBX
p2048
aVPOP RBP
p2049
aVPOP R12
p2050
aVPOP R13
p2051
aVPOP R14
p2052
aVPOP R15
p2053
aVRET
p2054
asV00103d0b
p2055
(lp2056
VCMP byte ptr [RSP + 0xb],0x0
p2057
aVJNZ 0x00103bc8
p2058
asV00105730
p2059
(lp2060
VMOV RAX,RBX
p2061
aVMUL RSI
p2062
aVJO 0x00105915
p2063
asV00102461
p2064
(lp2065
VMOV qword ptr [RSP + 0x40],0xc00
p2066
aVXOR R15D,R15D
p2067
aVJMP 0x00102375
p2068
asV00103792
p2069
(lp2070
VLEA RBX,[RAX + 0x4]
p2071
aVMOV qword ptr [0x00309080],RBX
p2072
asV001029a9
p2073
(lp2074
VCMP qword ptr [RSP],0x2
p2075
aVJZ 0x001029c5
p2076
asV00104880
p2077
(lp2078
VMOV EAX,dword ptr [0x00309058]
p2079
aVPUSH R12
p2080
aVMOV R12,qword ptr [0x00309060]
p2081
aVPUSH RBP
p2082
aVPUSH RBX
p2083
aVCMP EAX,0x1
p2084
aVJBE 0x001048c1
p2085
asV00103f59
p2086
(lp2087
VADD R15,0x1
p2088
aVMOVZX EAX,byte ptr [RDX + R15*0x1]
p2089
aVTEST AL,AL
p2090
aVJNZ 0x00103f50
p2091
asV001029a2
p2092
(lp2093
VCMP qword ptr [R13],0x0
p2094
aVJNZ 0x001029e8
p2095
asV00103d16
p2096
(lp2097
VCMP R15,R13
p2098
aVJNC 0x00103d24
p2099
asV00103f55
p2100
(lp2101
VMOV byte ptr [RCX + R15*0x1],AL
p2102
asV0010571c
p2103
(lp2104
VLEA RDX,[0x107620]
p2105
aVMOVZX R12D,R12B
p2106
aVMOVSXD RAX,dword ptr [RDX + R12*0x4]
p2107
aVADD RAX,RDX
p2108
asV00101d77
p2109
(lp2110
VMOV RAX,qword ptr [0x00308fc0]
p2111
aVTEST RAX,RAX
p2112
aVJZ 0x00101d90
p2113
asV0010244f
p2114
(lp2115
VJNZ 0x00102369
p2116
asV0010353d
p2117
(lp2118
VMOV RDX,qword ptr [RSP + 0x50]
p2119
aVMOV R14D,0x1
p2120
aVJMP 0x001033f8
p2121
asV00102e60
p2122
(lp2123
VPUSH R15
p2124
aVPUSH R14
p2125
aVPUSH R13
p2126
aVPUSH R12
p2127
aVPUSH RBP
p2128
aVPUSH RBX
p2129
aVMOV RBP,RDX
p2130
aVSUB RSP,0x68
p2131
aVMOV R12,qword ptr [R8]
p2132
aVMOV qword ptr [RSP + 0x48],RSI
p2133
aVMOV qword ptr [RSP + 0x10],RDI
p2134
aVMOV RSI,qword ptr FS:[0x28]
p2135
aVMOV qword ptr [RSP + 0x58],RSI
p2136
aVXOR ESI,ESI
p2137
aVTEST RDI,RDI
p2138
aVMOV qword ptr [RSP + 0x40],RCX
p2139
aVMOV qword ptr [RSP + 0x38],R8
p2140
aVMOV qword ptr [RSP + 0x50],R12
p2141
aVSETNZ byte ptr [RSP + 0x37]
p2142
aVJZ 0x00103518
p2143
asV001060c9
p2144
(lp2145
VMOV EDI,0x30e
p2146
aVCALL 0x001021a0
p2147
aVCMP EAX,0x5373616c
p2148
aVSETZ AL
p2149
aVMOVZX EAX,AL
p2150
aVIMUL EBX,EAX
p2151
asV00103f50
p2152
(lp2153
VCMP R13,R15
p2154
aVJBE 0x00103f59
p2155
asV00103f3c
p2156
(lp2157
VMOV RDX,qword ptr [RSP + 0x50]
p2158
aVMOVZX EAX,byte ptr [RDX]
p2159
aVTEST AL,AL
p2160
aVJZ 0x00103f66
p2161
asV00102455
p2162
(lp2163
VMOV EAX,dword ptr [RSP + 0x48]
p2164
aVTEST EAX,EAX
p2165
aVJZ 0x00102508
p2166
asV00103301
p2167
(lp2168
VMOV ESI,dword ptr [RBX]
p2169
aVMOV EDI,0x1
p2170
aVCALL 0x00102190
p2171
aVMOV ESI,dword ptr [RBX]
p2172
aVMOV EDI,0x23c
p2173
aVCALL 0x00102190
p2174
aVMOV ESI,dword ptr [RBX]
p2175
aVMOV EDI,0x33f
p2176
aVCALL 0x00102190
p2177
asV00106810
p2178
(lp2179
VMOV RDX,R15
p2180
aVMOV RSI,R14
p2181
aVMOV EDI,R13D
p2182
aVCALL qword ptr [R12 + RBX*0x8]
p2183
aVADD RBX,0x1
p2184
aVCMP RBP,RBX
p2185
aVJNZ 0x00106810
p2186
asV00102010
p2187
(lp2188
VMOV RAX,qword ptr [R15 + 0x28]
p2189
aVCMP RAX,qword ptr [R15 + 0x30]
p2190
aVJNC 0x001020f0
p2191
asV00104433
p2192
(lp2193
VCALL 0x00101770
p2194
asV00106850
p2195
(lp2196
VMOV RDX,qword ptr [0x00309008]
p2197
aVXOR ESI,ESI
p2198
aVJMP 0x001019b0
p2199
asV00103343
p2200
(lp2201
VMOV EDI,0x209
p2202
aVCALL 0x001021a0
p2203
aVCMP EAX,0x5874616c
p2204
aVSETZ AL
p2205
aVMOVZX EAX,AL
p2206
aVIMUL R14D,EAX
p2207
asV00103b06
p2208
(lp2209
VMOV RDI,qword ptr [RSP]
p2210
aVMOV byte ptr [RDI + R15*0x1 + 0x2],0x22
p2211
asV00103d42
p2212
(lp2213
VMOV R15,RDX
p2214
aVMOV EBX,0x30
p2215
aVJMP 0x00103b3b
p2216
asV0010574b
p2217
(lp2218
VOR EBP,R8D
p2219
aVNOP
p2220
asV00105f20
p2221
(lp2222
VMOV EDI,0x32d
p2223
aVCALL 0x001021a0
p2224
aVCMP EAX,0x3473616c
p2225
aVSETZ AL
p2226
aVMOVZX EAX,AL
p2227
aVIMUL EBP,EAX
p2228
aVJMP 0x00105cf1
p2229
asV0010598a
p2230
(lp2231
VMOV EDI,0x22a
p2232
aVCALL 0x001021a0
p2233
aVCMP EAX,0x3774616c
p2234
aVSETZ AL
p2235
aVMOVZX EAX,AL
p2236
aVIMUL EBP,EAX
p2237
asV00106609
p2238
(lp2239
VMOV ECX,EAX
p2240
aVMOV R13,qword ptr [RSP + 0x8]
p2241
aVSHR ECX,0x10
p2242
aVTEST EAX,0x8080
p2243
aVCMOVZ EAX,ECX
p2244
aVLEA RCX,[RDX + 0x2]
p2245
aVCMOVZ RDX,RCX
p2246
aVMOV ECX,EAX
p2247
aVADD CL,AL
p2248
aVSBB RDX,0x3
p2249
aVSUB RDX,qword ptr [RSP + 0x10]
p2250
asV001029ba
p2251
(lp2252
VCMP qword ptr [RSP],0x4
p2253
aVJZ 0x00102ac0
p2254
asV00104420
p2255
(lp2256
VMOV ESI,dword ptr [RSP + 0xc]
p2257
aVCALL 0x001037d0
p2258
aVMOV qword ptr [RSP + 0x50],RAX
p2259
aVJMP 0x00103f0a
p2260
asV001029c9
p2261
(lp2262
VXOR EAX,EAX
p2263
asV00105750
p2264
(lp2265
VMOVSXD RDI,EDI
p2266
aVMOV EAX,EBP
p2267
aVADD RCX,RDI
p2268
aVOR EAX,0x2
p2269
aVMOV qword ptr [R15],RCX
p2270
aVCMP byte ptr [RCX],0x0
p2271
aVMOV qword ptr [R14],RBX
p2272
aVCMOVNZ EBP,EAX
p2273
aVJMP 0x0010564d
p2274
asV00101b4b
p2275
(lp2276
VMOV RDI,qword ptr [0x00309088]
p2277
aVMOV RCX,qword ptr [0x00309010]
p2278
aVLEA R8,[0x106966]
p2279
aVLEA RDX,[0x106926]
p2280
aVLEA RSI,[0x1068a9]
p2281
aVXOR R9D,R9D
p2282
aVXOR EAX,EAX
p2283
aVCALL 0x001051c0
p2284
aVXOR EDI,EDI
p2285
aVCALL 0x001019c0
p2286
asV00102c3a
p2287
(lp2288
VMOVZX EAX,byte ptr [RDI + 0x2]
p2289
aVMOV R10D,EAX
p2290
aVSHR R10B,0x6
p2291
aVADD R8D,R10D
p2292
aVAND R8D,0x3f
p2293
aVCMP RCX,0x3
p2294
aVMOVZX R8D,byte ptr [R9 + R8*0x1]
p2295
aVMOV byte ptr [RDX + 0x2],R8B
p2296
aVJZ 0x00102d02
p2297
asV001029c5
p2298
(lp2299
VMOV qword ptr [R12],R15
p2300
asV0010573f
p2301
(lp2302
VMUL RSI
p2303
aVJO 0x00105906
p2304
asV00104e24
p2305
(lp2306
VMOV R9,qword ptr [RSP + 0x18]
p2307
aVMOV RCX,RBX
p2308
aVMOV RDX,RAX
p2309
aVMOV RDI,RBP
p2310
aVMOV ESI,0x1
p2311
aVXOR EAX,EAX
p2312
aVPUSH R9
p2313
aVPUSH R13
p2314
aVPUSH R12
p2315
aVPUSH R15
p2316
aVPUSH R14
p2317
aVMOV R9,qword ptr [RSP + 0x30]
p2318
aVMOV R8,qword ptr [RSP + 0x38]
p2319
aVCALL 0x001019e0
p2320
aVADD RSP,0x30
p2321
aVADD RSP,0x28
p2322
aVPOP RBX
p2323
aVPOP RBP
p2324
aVPOP R12
p2325
aVPOP R13
p2326
aVPOP R14
p2327
aVPOP R15
p2328
aVRET
p2329
asV0010440a
p2330
(lp2331
VMOV ESI,dword ptr [RSP + 0xc]
p2332
aVMOV RDI,RCX
p2333
aVCALL 0x001037d0
p2334
aVMOV qword ptr [RSP + 0x48],RAX
p2335
aVJMP 0x00103f35
p2336
asV0010573c
p2337
(lp2338
VXOR R8D,R8D
p2339
asV00103d31
p2340
(lp2341
VMOVZX EAX,byte ptr [R9 + R14*0x1 + 0x1]
p2342
aVSUB EAX,0x30
p2343
aVCMP AL,0x9
p2344
aVJBE 0x001042f0
p2345
asV0010379d
p2346
(lp2347
VMOV qword ptr [0x006d99f0],RBX
p2348
aVMOV qword ptr [0x003090a8],RBX
p2349
aVPOP RBX
p2350
aVRET
p2351
asV00101d90
p2352
(lp2353
VPOP RBP
p2354
aVRET
p2355
asV00105748
p2356
(lp2357
VMOV RBX,RAX
p2358
asV001060e1
p2359
(lp2360
VMOV EDI,0x310
p2361
aVLEA R13,[RBX + RBP*0x1]
p2362
aVCALL 0x001021a0
p2363
aVMOV EDI,0x310
p2364
aVMOV EBP,EAX
p2365
aVCALL 0x001021a0
p2366
aVCMP EAX,0x6c617351
p2367
aVJZ 0x0010611a
p2368
asV00102c2c
p2369
(lp2370
VSHL R8D,0x2
p2371
aVCMP RSI,0x2
p2372
aVJZ 0x00102cf0
p2373
asV00104896
p2374
(lp2375
VSUB EAX,0x2
p2376
aVLEA RBX,[R12 + 0x18]
p2377
aVSHL RAX,0x4
p2378
aVLEA RBP,[R12 + RAX*0x1 + 0x28]
p2379
aVNOP word ptr [RAX + RAX*0x1]
p2380
asV00102478
p2381
(lp2382
VMOV RAX,qword ptr [RSP + 0x8]
p2383
aVSUB RBP,0x1
p2384
aVMOV RDX,RBP
p2385
aVMOV qword ptr [RSP + 0x40],RBP
p2386
aVSUB RDX,R12
p2387
aVLEA RSI,[RAX + R14*0x1 + 0x1]
p2388
aVLEA RDI,[RAX + R14*0x1]
p2389
aVCALL 0x00101950
p2390
aVJMP 0x001022c9
p2391
asV00103325
p2392
(lp2393
VMOV EDI,0x209
p2394
aVCALL 0x001021a0
p2395
aVMOV EDI,0x209
p2396
aVMOV R14D,EAX
p2397
aVCALL 0x001021a0
p2398
aVCMP EAX,0x6c617458
p2399
aVJZ 0x0010335c
p2400
asV00103d1b
p2401
(lp2402
VMOV RAX,qword ptr [RSP]
p2403
aVMOV byte ptr [RAX + R15*0x1],0x5c
p2404
asV001040ef
p2405
(lp2406
VMOV RDI,R9
p2407
aVMOV qword ptr [RSP + 0x58],R11
p2408
aVMOV qword ptr [RSP + 0x28],R8
p2409
aVMOV byte ptr [RSP + 0x20],R10B
p2410
aVMOV qword ptr [RSP + 0x18],R9
p2411
aVCALL 0x00101760
p2412
aVMOVZX R10D,byte ptr [RSP + 0x20]
p2413
aVMOV R11,qword ptr [RSP + 0x58]
p2414
aVMOV RBP,RAX
p2415
aVMOV R8,qword ptr [RSP + 0x28]
p2416
aVMOV R9,qword ptr [RSP + 0x18]
p2417
asV00102430
p2418
(lp2419
VTEST BPL,BPL
p2420
aVJZ 0x001024a0
p2421
asV00105bf4
p2422
(lp2423
VMOV EDI,0x248
p2424
aVCALL 0x001021a0
p2425
aVCMP EAX,0x1974616c
p2426
aVSETZ AL
p2427
aVMOVZX EAX,AL
p2428
aVIMUL EBX,EAX
p2429
asV0010398d
p2430
(lp2431
VCMP byte ptr [R9 + R14*0x1],0x0
p2432
aVSETNZ R12B
p2433
asV00101b03
p2434
(lp2435
VMOV RDI,qword ptr [0x003090a0]
p2436
aVCALL 0x00104950
p2437
aVLEA RSI,[0x106950]
p2438
aVMOV R15,RAX
p2439
aVXOR EDI,EDI
p2440
aVMOV EDX,0x5
p2441
aVCALL 0x00101740
p2442
aVMOV RCX,R15
p2443
aVMOV RDX,RAX
p2444
aVXOR ESI,ESI
p2445
aVMOV EDI,0x1
p2446
aVXOR EAX,EAX
p2447
aVCALL 0x00101960
p2448
aVJMP 0x00101aa8
p2449
asV00103518
p2450
(lp2451
VMOV byte ptr [RSP + 0x36],0x1
p2452
aVMOV byte ptr [RSP + 0x35],0x1
p2453
aVJMP 0x00102ec5
p2454
asV00104846
p2455
(lp2456
VMOV R11,qword ptr [RSP + 0x28]
p2457
aVMOV qword ptr [R12],R11
p2458
asV00101f6f
p2459
(lp2460
VMOV RCX,qword ptr [0x00309088]
p2461
aVMOV RDI,qword ptr [RSP + 0x10]
p2462
aVMOV RDX,R15
p2463
aVMOV ESI,0x1
p2464
aVCALL 0x00101900
p2465
aVCMP R15,RAX
p2466
aVJBE 0x00101fc0
p2467
asV00103758
p2468
(lp2469
VLEA RSI,[RAX + -0x6]
p2470
aVLEA RDI,[0x106fe0]
p2471
aVMOV ECX,0x7
p2472
aVCMPSB.REPE RDI,RSI
p2473
aVSETA DL
p2474
aVSBB DL,0x0
p2475
aVTEST DL,DL
p2476
aVJNZ 0x0010379d
p2477
asV00103f0a
p2478
(lp2479
VLEA RSI,[0x106ffd]
p2480
aVXOR EDI,EDI
p2481
aVMOV EDX,0x5
p2482
aVCALL 0x00101740
p2483
aVMOV RCX,RAX
p2484
aVMOV qword ptr [RSP + 0x48],RAX
p2485
aVLEA RAX,[0x106ffd]
p2486
aVCMP RCX,RAX
p2487
aVJZ 0x0010440a
p2488
asV00105933
p2489
(lp2490
VMOV R9D,0x1
p2491
aVOR RBX,-0x1
p2492
aVJMP 0x00105860
p2493
asV00103996
p2494
(lp2495
VTEST R12B,R12B
p2496
aVJZ 0x00104270
p2497
asV001062c6
p2498
(lp2499
VMOV EDI,0x326
p2500
aVCALL 0x001021a0
p2501
aVCMP EAX,0x3b73616c
p2502
aVSETZ AL
p2503
aVMOVZX EAX,AL
p2504
aVIMUL EBX,EAX
p2505
asV00103506
p2506
(lp2507
VLEA RAX,[RBX + 0x4]
p2508
aVMOV EBP,0x4
p2509
aVMOV qword ptr [R12],RAX
p2510
aVJMP 0x00103087
p2511
asV00103748
p2512
(lp2513
VLEA R8,[RAX + 0x1]
p2514
aVMOV RDX,R8
p2515
aVSUB RDX,RBX
p2516
aVCMP RDX,0x6
p2517
aVJLE 0x0010379d
p2518
asV00105924
p2519
(lp2520
VMOV R9D,0x1
p2521
aVOR RBX,-0x1
p2522
aVJMP 0x001057ff
p2523
asV00101d1a
p2524
(lp2525
VMOV EDI,0x1
p2526
aVCALL 0x00102540
p2527
asV00105960
p2528
(lp2529
VPUSH R13
p2530
aVPUSH R12
p2531
aVMOV R12,RDI
p2532
aVPUSH RBP
p2533
aVPUSH RBX
p2534
aVMOV EDI,0x22a
p2535
aVSUB RSP,0x8
p2536
aVCALL 0x001021a0
p2537
aVMOV EDI,0x22a
p2538
aVMOV EBP,EAX
p2539
aVCALL 0x001021a0
p2540
aVCMP EAX,0x6c617437
p2541
aVJZ 0x001059a2
p2542
asV00103f48
p2543
(lp2544
VMOV RCX,qword ptr [RSP]
p2545
aVNOP dword ptr [RAX]
p2546
asV0010243d
p2547
(lp2548
VTEST AL,0x10
p2549
aVJZ 0x00102360
p2550
asV00103d00
p2551
(lp2552
VCMP byte ptr [RSP + 0xa],0x0
p2553
aVJZ 0x001040b8
p2554
asV00101d60
p2555
(lp2556
VLEA RDI,[0x309080]
p2557
aVPUSH RBP
p2558
aVLEA RAX,[0x309080]
p2559
aVCMP RAX,RDI
p2560
aVMOV RBP,RSP
p2561
aVJZ 0x00101d90
p2562
asV00106806
p2563
(lp2564
VXOR EBX,EBX
p2565
aVNOP dword ptr [RAX + RAX*0x1]
p2566
asV00105712
p2567
(lp2568
VSUB R12D,0x42
p2569
aVCMP R12B,0x35
p2570
aVJA 0x0010576c
p2571
asV00101f8d
p2572
(lp2573
VLEA RSI,[0x106884]
p2574
aVMOV EDX,0x5
p2575
aVXOR EDI,EDI
p2576
aVCALL 0x00101740
p2577
aVMOV qword ptr [RSP + 0x20],RAX
p2578
aVCALL 0x001016c0
p2579
aVMOV RDX,qword ptr [RSP + 0x20]
p2580
aVMOV ESI,dword ptr [RAX]
p2581
aVMOV EDI,0x1
p2582
aVXOR EAX,EAX
p2583
aVCALL 0x00101960
p2584
aVNOP dword ptr [RAX]
p2585
asV00103774
p2586
(lp2587
VLEA RDI,[0x106fe8]
p2588
aVMOV ECX,0x3
p2589
aVMOV RSI,R8
p2590
aVMOV RBX,R8
p2591
aVCMPSB.REPE RDI,RSI
p2592
aVSETA DL
p2593
aVSBB DL,0x0
p2594
aVTEST DL,DL
p2595
aVJNZ 0x0010379d
p2596
asV00103535
p2597
(lp2598
VMOV RDX,R12
p2599
aVJMP 0x001033f8
p2600
asV00102445
p2601
(lp2602
VCMP R12D,0x1
p2603
aVJA 0x00102508
p2604
asV00105951
p2605
(lp2606
VMOV R8D,0x1
p2607
aVOR RAX,-0x1
p2608
aVJMP 0x001058af
p2609
asV001062de
p2610
(lp2611
VMOV EAX,EBX
p2612
aVADD RAX,RBP
p2613
aVLEA RAX,[RAX + RAX*0x2]
p2614
aVLEA RAX,[RAX + RAX*0x8]
p2615
aVLEA RDI,[R12 + RAX*0x8]
p2616
aVCALL 0x001016f0
p2617
aVMOV EBX,dword ptr [R12]
p2618
aVMOV RDI,R12
p2619
aVMOV RBP,RAX
p2620
aVCALL 0x00105960
p2621
aVAND EBX,0x20
p2622
aVTEST EBX,EBX
p2623
aVJNZ 0x00106328
p2624
asV00102200
p2625
(lp2626
VPUSH R15
p2627
aVPUSH R14
p2628
aVPUSH R13
p2629
aVPUSH R12
p2630
aVMOV R13,RDI
p2631
aVPUSH RBP
p2632
aVPUSH RBX
p2633
aVSUB RSP,0x1c68
p2634
aVMOV RAX,qword ptr FS:[0x28]
p2635
aVMOV qword ptr [RSP + 0x1c58],RAX
p2636
aVXOR EAX,EAX
p2637
aVLEA RAX,[RSP + 0x48]
p2638
aVMOV qword ptr [RSP + 0x18],RSI
p2639
aVMOV byte ptr [RSP + 0x3f],DL
p2640
aVMOV RDI,RAX
p2641
aVMOV qword ptr [RSP + 0x20],RAX
p2642
aVCALL 0x00102e50
p2643
aVLEA RAX,[RSP + 0xc50]
p2644
aVMOV qword ptr [RSP + 0x8],RAX
p2645
aVLEA RAX,[RSP + 0x40]
p2646
aVMOV qword ptr [RSP + 0x28],RAX
p2647
aVLEA RAX,[RSP + 0x50]
p2648
aVMOV qword ptr [RSP + 0x30],RAX
p2649
aVNOP dword ptr [RAX + RAX*0x1]
p2650
asV00102c08
p2651
(lp2652
VMOVZX R8D,byte ptr [RDI + 0x1]
p2653
aVMOV R10D,R8D
p2654
aVSHR R10B,0x4
p2655
aVADD EAX,R10D
p2656
aVAND EAX,0x3f
p2657
aVCMP RCX,0x2
p2658
aVMOVZX EAX,byte ptr [R9 + RAX*0x1]
p2659
aVMOV byte ptr [RDX + 0x1],AL
p2660
aVJZ 0x00102d02
p2661
asV0010484f
p2662
(lp2663
VMOV RAX,qword ptr [RSP + 0x10]
p2664
aVADD RSP,0x38
p2665
aVPOP RBX
p2666
aVPOP RBP
p2667
aVPOP R12
p2668
aVPOP R13
p2669
aVPOP R14
p2670
aVPOP R15
p2671
aVRET
p2672
asV00103f35
p2673
(lp2674
VXOR R15D,R15D
p2675
aVTEST EBX,EBX
p2676
aVJNZ 0x00103f66
p2677
asV0010399f
p2678
(lp2679
VTEST R11,R11
p2680
aVLEA R8,[R9 + R14*0x1]
p2681
aVSETNZ AL
p2682
aVAND AL,byte ptr [RSP + 0xa]
p2683
aVMOV R10D,EAX
p2684
aVJZ 0x00103a50
p2685
asV001060a9
p2686
(lp2687
VMOV EDI,0x30e
p2688
aVADD RBP,RBX
p2689
aVCALL 0x001021a0
p2690
aVMOV EDI,0x30e
p2691
aVMOV EBX,EAX
p2692
aVCALL 0x001021a0
p2693
aVCMP EAX,0x6c617353
p2694
aVJZ 0x001060e1
p2695
asV00105708
p2696
(lp2697
VMOV EDI,0x1
p2698
aVMOV ESI,0x400
p2699
asV00103527
p2700
(lp2701
VMOV RDX,R12
p2702
aVMOV R14D,0x1
p2703
aVJMP 0x001033f8
p2704
asV00102435
p2705
(lp2706
VMOV EAX,dword ptr [R13]
p2707
aVADD R12D,0x1
p2708
asV00105942
p2709
(lp2710
VMOV R9D,0x1
p2711
aVOR RBX,-0x1
p2712
aVJMP 0x001057d7
p2713
asV001053db
p2714
(lp2715
VXOR EDX,EDX
p2716
aVMOV RAX,-0x5555555555555556
p2717
aVDIV R9
p2718
aVCMP RAX,RCX
p2719
aVJBE 0x0010543c
p2720
asV0010285e
p2721
(lp2722
VLEA RSI,[0x106934]
p2723
aVMOV EDX,0x3
p2724
aVMOV RDI,RAX
p2725
aVCALL 0x001016d0
p2726
aVTEST EAX,EAX
p2727
aVJNZ 0x001028b9
p2728
asV001040b8
p2729
(lp2730
VXOR EBX,EBX
p2731
aVTEST byte ptr [RSP + 0x68],0x1
p2732
aVJZ 0x00103c90
p2733
asV001064d8
p2734
(lp2735
VCALL 0x001018b0
p2736
aVTEST RAX,RAX
p2737
aVMOV RBP,RAX
p2738
aVJZ 0x001064a6
p2739
asV001042f5
p2740
(lp2741
VMOV RAX,qword ptr [RSP]
p2742
aVMOV byte ptr [RAX + RDX*0x1],0x30
p2743
asV001051a5
p2744
(lp2745
VCALL 0x00101770
p2746
asV001051a0
p2747
(lp2748
VADD RSP,0x68
p2749
aVRET
p2750
asV001042f0
p2751
(lp2752
VCMP R13,RDX
p2753
aVJBE 0x001042fd
p2754
asV00103950
p2755
(lp2756
VJMP RAX
p2757
asV00103952
p2758
(lp2759
VMOV byte ptr [RSP + 0xb],0x0
p2760
aVMOV byte ptr [RSP + 0xa],0x1
p2761
aVXOR R11D,R11D
p2762
aVMOV qword ptr [RSP + 0x38],0x0
p2763
aVXOR R15D,R15D
p2764
aVNOP dword ptr [RAX + RAX*0x1]
p2765
asV00105de6
p2766
(lp2767
VMOV EDI,0x34b
p2768
aVADD RBP,RBX
p2769
aVCALL 0x001021a0
p2770
aVMOV EDI,0x34b
p2771
aVMOV EBX,EAX
p2772
aVCALL 0x001021a0
p2773
aVCMP EAX,0x6c617316
p2774
aVJZ 0x00105e1e
p2775
asV001042de
p2776
(lp2777
VMOV R13,qword ptr [RSP + 0x58]
p2778
aVMOV R12,R15
p2779
aVMOV RBP,qword ptr [RSP + 0x18]
p2780
aVJMP 0x00103bcb
p2781
asV001066fd
p2782
(lp2783
VMOV RDI,R14
p2784
aVCALL 0x00105960
p2785
aVMOV RAX,qword ptr [RSP]
p2786
aVTEST RAX,RAX
p2787
aVJZ 0x00106534
p2788
asV00101f38
p2789
(lp2790
VLEA RDX,[R14 + 0x2]
p2791
aVMOV RAX,-0x5555555555555555
p2792
aVMOV RSI,R14
p2793
aVMOV RDI,RBP
p2794
aVMUL RDX
p2795
aVSHR RDX,1
p2796
aVLEA R15,[RDX*0x4]
p2797
aVMOV RDX,qword ptr [RSP + 0x10]
p2798
aVMOV RCX,R15
p2799
aVCALL 0x00102be0
p2800
aVCMP qword ptr [RSP + 0x8],0x0
p2801
aVJNZ 0x00101fe0
p2802
asV0010393f
p2803
(lp2804
VLEA RCX,[0x107040]
p2805
aVMOV EDX,R14D
p2806
aVMOVSXD RAX,dword ptr [RCX + RDX*0x4]
p2807
aVADD RAX,RCX
p2808
asV001040a8
p2809
(lp2810
VMOV EAX,0x5c
p2811
aVJMP 0x00103c35
p2812
asV001031f7
p2813
(lp2814
VLEA RAX,[R12 + RBP*0x1]
p2815
aVMOV EDI,0x182
p2816
aVMOV qword ptr [RSP + 0x18],RAX
p2817
aVCALL 0x001021a0
p2818
aVMOV EDI,0x182
p2819
aVMOV R12D,EAX
p2820
aVCALL 0x001021a0
p2821
aVCMP EAX,0x6c6174df
p2822
aVJZ 0x00103237
p2823
asV001064c0
p2824
(lp2825
VLEA R13,[0x107709]
p2826
aVMOV EDI,0x1d
p2827
aVMOV R12D,0xf
p2828
aVMOV R14D,0xe
p2829
asV00103705
p2830
(lp2831
VPUSH RBX
p2832
aVMOV EBX,ESI
p2833
aVCALL 0x001018a0
p2834
aVMOV ECX,EBX
p2835
aVXOR EDX,EDX
p2836
aVXOR ESI,ESI
p2837
aVPOP RBX
p2838
aVMOV EDI,EAX
p2839
aVJMP 0x00101830
p2840
asV001053d0
p2841
(lp2842
VTEST RDI,RDI
p2843
aVMOV R9,RDX
p2844
aVMOV RCX,qword ptr [RSI]
p2845
aVJZ 0x00105410
p2846
asV00103700
p2847
(lp2848
VTEST RDI,RDI
p2849
aVJZ 0x00103720
p2850
asV00104aa5
p2851
(lp2852
VCALL 0x00101770
p2853
asV001064ad
p2854
(lp2855
VMOV qword ptr [0x006d9b38],R15
p2856
aVJMP 0x001063ea
p2857
asV00103980
p2858
(lp2859
VCMP RBP,R14
p2860
aVSETNZ R12B
p2861
aVCMP RBP,-0x1
p2862
aVJNZ 0x00103996
p2863
asV00105bd2
p2864
(lp2865
VMOV EAX,EBX
p2866
aVMOV EDI,0x248
p2867
aVADD RBP,RAX
p2868
aVCALL 0x001021a0
p2869
aVMOV EDI,0x248
p2870
aVMOV EBX,EAX
p2871
aVCALL 0x001021a0
p2872
aVCMP EAX,0x6c617419
p2873
aVJZ 0x00105c0c
p2874
asV001053fa
p2875
(lp2876
VMOV qword ptr [RSI],RCX
p2877
aVIMUL RCX,R9
p2878
aVMOV RSI,RCX
p2879
aVJMP 0x00105370
p2880
asV00101d24
p2881
(lp2882
VCALL 0x00101770
p2883
asV001064f9
p2884
(lp2885
VADD R12,RBP
p2886
aVMOV RAX,0x2e74657372616863
p2887
aVMOV ESI,0x20000
p2888
aVMOV qword ptr [R12],RAX
p2889
aVMOV EAX,0x73
p2890
aVMOV dword ptr [R12 + 0x8],0x61696c61
p2891
aVMOV word ptr [R12 + 0xc],AX
p2892
aVMOV RDI,RBP
p2893
aVXOR EAX,EAX
p2894
aVCALL 0x00101970
p2895
aVTEST EAX,EAX
p2896
aVMOV R12D,EAX
p2897
aVJNS 0x00106558
p2898
asV00105bba
p2899
(lp2900
VMOV EDI,0x247
p2901
aVCALL 0x001021a0
p2902
aVCMP EAX,0x1a74616c
p2903
aVSETZ AL
p2904
aVMOVZX EAX,AL
p2905
aVIMUL EBX,EAX
p2906
asV001051c0
p2907
(lp2908
VPUSH RBP
p2909
aVPUSH RBX
p2910
aVMOV R10D,0x20
p2911
aVXOR R11D,R11D
p2912
aVSUB RSP,0xb8
p2913
aVMOV RAX,qword ptr FS:[0x28]
p2914
aVMOV qword ptr [RSP + 0x78],RAX
p2915
aVXOR EAX,EAX
p2916
aVLEA RAX,[RSP + 0xd0]
p2917
aVMOV qword ptr [RSP + 0xa0],R8
p2918
aVLEA RBX,[RSP + 0xd0]
p2919
aVLEA R8,[RSP + 0x20]
p2920
aVMOV qword ptr [RSP + 0xa8],R9
p2921
aVMOV dword ptr [RSP + 0x8],0x20
p2922
aVMOV qword ptr [RSP + 0x10],RAX
p2923
aVLEA RAX,[RSP + 0x80]
p2924
aVXOR R9D,R9D
p2925
aVMOV qword ptr [RSP + 0x18],RAX
p2926
aVMOV RBP,RAX
p2927
aVNOP word ptr [RAX + RAX*0x1]
p2928
asV00105915
p2929
(lp2930
VOR RAX,-0x1
p2931
aVMOV R8D,0x1
p2932
aVJMP 0x0010573f
p2933
asV001040d0
p2934
(lp2935
VLEA RAX,[RSP + 0x90]
p2936
aVCMP RBP,-0x1
p2937
aVMOV qword ptr [RSP + 0x90],0x0
p2938
aVMOV qword ptr [RSP + 0x10],RAX
p2939
aVJNZ 0x00104123
p2940
asV00103736
p2941
(lp2942
VMOV ESI,0x2f
p2943
aVMOV RBX,RDI
p2944
aVCALL 0x001017c0
p2945
aVTEST RAX,RAX
p2946
aVJZ 0x0010379d
p2947
asV00103730
p2948
(lp2949
VTEST RDI,RDI
p2950
aVPUSH RBX
p2951
aVJZ 0x001037ad
p2952
asV001053ef
p2953
(lp2954
VMOV RAX,RCX
p2955
aVSHR RAX,1
p2956
aVLEA RCX,[RAX + RCX*0x1 + 0x1]
p2957
asV00103970
p2958
(lp2959
VXOR R14D,R14D
p2960
aVMOV R9,R12
p2961
aVNOP word ptr CS:[RAX + RAX*0x1]
p2962
asV00102e07
p2963
(lp2964
VMOV RCX,RBP
p2965
aVMOV RDX,RAX
p2966
aVMOV RBP,RBX
p2967
aVMOV RSI,R12
p2968
aVMOV RDI,R14
p2969
aVCALL 0x00102be0
p2970
aVPOP RBX
p2971
aVMOV RAX,RBP
p2972
aVPOP RBP
p2973
aVPOP R12
p2974
aVPOP R13
p2975
aVPOP R14
p2976
aVRET
p2977
asV001051aa
p2978
(lp2979
VMOV R11,qword ptr [R10 + 0x8]
p2980
aVLEA RAX,[R11 + 0x8]
p2981
aVMOV qword ptr [R10 + 0x8],RAX
p2982
aVJMP 0x00105175
p2983
asV001042fd
p2984
(lp2985
VLEA RAX,[R15 + 0x2]
p2986
aVCMP R13,RAX
p2987
aVJBE 0x00104310
p2988
asV00104ad0
p2989
(lp2990
VSUB RSP,0x48
p2991
aVMOV ECX,EDX
p2992
aVMOV RAX,qword ptr FS:[0x28]
p2993
aVMOV qword ptr [RSP + 0x38],RAX
p2994
aVXOR EAX,EAX
p2995
aVMOV RAX,qword ptr [0x006d9b30]
p2996
aVMOV R8,RSP
p2997
aVAND ECX,0x1f
p2998
aVMOVDQA XMM0,xmmword ptr [0x006d9b00]
p2999
aVMOV qword ptr [RSP + 0x30],RAX
p3000
aVMOV EAX,EDX
p3001
aVMOVAPS xmmword ptr [RSP],XMM0
p3002
aVSHR AL,0x5
p3003
aVMOVZX EAX,AL
p3004
aVLEA R9,[R8 + RAX*0x4 + 0x8]
p3005
aVMOVDQA XMM0,xmmword ptr [0x006d9b10]
p3006
aVMOVAPS xmmword ptr [RSP + 0x10],XMM0
p3007
aVMOVDQA XMM0,xmmword ptr [0x006d9b20]
p3008
aVMOVAPS xmmword ptr [RSP + 0x20],XMM0
p3009
aVMOV EDX,dword ptr [R9]
p3010
aVMOV EAX,EDX
p3011
aVSHR EAX,CL
p3012
aVNOT EAX
p3013
aVAND EAX,0x1
p3014
aVSHL EAX,CL
p3015
aVMOV RCX,R8
p3016
aVXOR EAX,EDX
p3017
aVMOV RDX,RSI
p3018
aVMOV RSI,RDI
p3019
aVMOV dword ptr [R9],EAX
p3020
aVXOR EDI,EDI
p3021
aVCALL 0x00104440
p3022
aVMOV RSI,qword ptr [RSP + 0x38]
p3023
aVXOR RSI,qword ptr FS:[0x28]
p3024
aVJNZ 0x00104b63
p3025
asV001040c5
p3026
(lp3027
VADD R14,0x1
p3028
aVJMP 0x00103980
p3029
asV001062a4
p3030
(lp3031
VMOV EAX,EBX
p3032
aVMOV EDI,0x326
p3033
aVADD RBP,RAX
p3034
aVCALL 0x001021a0
p3035
aVMOV EDI,0x326
p3036
aVMOV EBX,EAX
p3037
aVCALL 0x001021a0
p3038
aVCMP EAX,0x6c61733b
p3039
aVJZ 0x001062de
p3040
asV001064e5
p3041
(lp3042
VMOV RDX,R14
p3043
aVMOV RSI,R13
p3044
aVMOV RDI,RBP
p3045
aVCALL 0x00101890
p3046
aVMOV byte ptr [RBP + R14*0x1],0x2f
p3047
asV00105906
p3048
(lp3049
VMOV R8D,0x1
p3050
aVOR RBX,-0x1
p3051
aVJMP 0x0010574b
p3052
asV00102876
p3053
(lp3054
VLEA RSI,[0x106e00]
p3055
aVMOV EDX,0x5
p3056
aVXOR EDI,EDI
p3057
aVLEA R12,[0x1068a9]
p3058
aVLEA RBX,[0x1068cc]
p3059
aVCALL 0x00101740
p3060
aVLEA RCX,[0x1068a9]
p3061
aVLEA RDX,[0x106d90]
p3062
aVMOV RSI,RAX
p3063
aVMOV EDI,0x1
p3064
aVXOR EAX,EAX
p3065
aVCALL 0x00101940
p3066
aVJMP 0x001027fe
p3067
asV00103720
p3068
(lp3069
VRET
p3070
asV001031bd
p3071
(lp3072
VMOV EDI,0x20f
p3073
aVADD RBP,R12
p3074
aVCALL 0x001021a0
p3075
aVMOV EDI,0x20f
p3076
aVMOV R12D,EAX
p3077
aVCALL 0x001021a0
p3078
aVCMP EAX,0x6c617452
p3079
aVJZ 0x001031f7
p3080
asV00101980
p3081
(lp3082
VJMP qword ptr [0x00308f70]
p3083
asV001020ca
p3084
(lp3085
VMOV RCX,qword ptr [RSP + 0x18]
p3086
aVMOV RAX,qword ptr [RCX + 0x28]
p3087
aVCMP RAX,qword ptr [RCX + 0x30]
p3088
aVJNC 0x0010213a
p3089
asV001042b5
p3090
(lp3091
VMOV byte ptr [RSI + RDX*0x1],CL
p3092
asV001020d9
p3093
(lp3094
VMOV RCX,qword ptr [RSP + 0x18]
p3095
aVLEA RDX,[RAX + 0x1]
p3096
aVMOV qword ptr [RCX + 0x28],RDX
p3097
aVMOV byte ptr [RAX],0xa
p3098
aVMOV EAX,dword ptr [RBX]
p3099
aVJMP 0x00101edc
p3100
asV001042b8
p3101
(lp3102
VADD RDX,0x1
p3103
aVMOVZX ECX,byte ptr [RAX + RDX*0x1]
p3104
aVTEST CL,CL
p3105
aVJNZ 0x001042b0
p3106
asV001055e7
p3107
(lp3108
VMOVZX ECX,BL
p3109
aVTEST byte ptr [RSI + RCX*0x2 + 0x1],0x20
p3110
aVJNZ 0x001055e0
p3111
asV00102aca
p3112
(lp3113
VJMP 0x00102aae
p3114
asV001053a1
p3115
(lp3116
VCALL 0x00105530
p3117
asV001055e0
p3118
(lp3119
VADD RAX,0x1
p3120
aVMOVZX EBX,byte ptr [RAX]
p3121
asV001042b0
p3122
(lp3123
VCMP RDX,R13
p3124
aVJNC 0x001042b8
p3125
asV001044df
p3126
(lp3127
VMOV EAX,dword ptr [RBP + 0x4]
p3128
aVSHL R15,0x4
p3129
aVSUB RSP,0x8
p3130
aVADD RBX,R15
p3131
aVLEA R15,[RBP + 0x8]
p3132
aVMOV R8D,dword ptr [RBP]
p3133
aVMOV R11,qword ptr [RBX]
p3134
aVMOV R12,qword ptr [RBX + 0x8]
p3135
aVMOV RCX,R14
p3136
aVOR EAX,0x1
p3137
aVMOV dword ptr [RSP + 0x24],EAX
p3138
aVPUSH qword ptr [RBP + 0x30]
p3139
aVMOV R9D,EAX
p3140
aVPUSH qword ptr [RBP + 0x28]
p3141
aVPUSH R15
p3142
aVMOV RSI,R11
p3143
aVMOV RDX,qword ptr [RSP + 0x28]
p3144
aVMOV RDI,R12
p3145
aVMOV qword ptr [RSP + 0x30],R11
p3146
aVCALL 0x001038c0
p3147
aVADD RSP,0x20
p3148
aVMOV R11,qword ptr [RSP + 0x10]
p3149
aVCMP R11,RAX
p3150
aVJA 0x0010459b
p3151
asV00103bc8
p3152
(lp3153
VMOV R12,R9
p3154
asV00103bc4
p3155
(lp3156
VNOP dword ptr [RAX]
p3157
asV00105da2
p3158
(lp3159
VMOV EDI,0x349
p3160
aVADD RBX,RBP
p3161
aVCALL 0x001021a0
p3162
aVMOV EDI,0x349
p3163
aVMOV EBP,EAX
p3164
aVCALL 0x001021a0
p3165
aVCMP EAX,0x6c617318
p3166
aVJNZ 0x00105e60
p3167
asV001022ff
p3168
(lp3169
VMOV EAX,dword ptr [R13]
p3170
aVADD RBX,RBP
p3171
aVTEST AL,0x20
p3172
aVJZ 0x0010227f
p3173
asV00102ad0
p3174
(lp3175
VMOV ESI,dword ptr [RBX]
p3176
aVMOV EDI,0x310
p3177
aVADD R15,0x1
p3178
aVCALL 0x00102190
p3179
aVMOV ESI,dword ptr [RBX]
p3180
aVMOV EDI,0x232
p3181
aVCALL 0x00102190
p3182
aVMOVZX EAX,byte ptr [RBX + 0x1]
p3183
aVMOV ESI,dword ptr [RBX]
p3184
aVMOV EDI,0x312
p3185
aVMOVSX EAX,byte ptr [R14 + RAX*0x1]
p3186
aVSHL EAX,0x4
p3187
aVMOV EBP,EAX
p3188
aVCALL 0x00102190
p3189
aVMOVZX EAX,byte ptr [RBX + 0x2]
p3190
aVMOVZX EAX,byte ptr [R14 + RAX*0x1]
p3191
aVSAR AL,0x2
p3192
aVOR EAX,EBP
p3193
aVMOV byte ptr [R15 + -0x1],AL
p3194
aVSUB qword ptr [R13],0x1
p3195
aVJMP 0x00102a8e
p3196
asV001033f8
p3197
(lp3198
VMOV RAX,qword ptr [RSP + 0x38]
p3199
aVSUB qword ptr [RAX],RDX
p3200
aVMOV EAX,R14D
p3201
aVMOV RCX,qword ptr [RSP + 0x58]
p3202
aVXOR RCX,qword ptr FS:[0x28]
p3203
aVJNZ 0x0010354d
p3204
asV00103bae
p3205
(lp3206
VCMP dword ptr [RSP + 0xc],0x2
p3207
aVJNZ 0x00103b30
p3208
asV00103dec
p3209
(lp3210
VMOV qword ptr [RSP + 0x20],R9
p3211
aVMOV qword ptr [RSP + 0x18],R11
p3212
aVMOV byte ptr [RSP + 0x10],R10B
p3213
aVCALL 0x00101a10
p3214
aVMOV RCX,qword ptr [RAX]
p3215
aVMOVZX EDX,BL
p3216
aVMOVZX R10D,byte ptr [RSP + 0x10]
p3217
aVMOV R11,qword ptr [RSP + 0x18]
p3218
aVMOV R9,qword ptr [RSP + 0x20]
p3219
aVMOVZX R12D,word ptr [RCX + RDX*0x2]
p3220
aVMOV EDX,0x1
p3221
aVSHR R12W,0xe
p3222
aVXOR R12D,0x1
p3223
aVAND R12B,byte ptr [RSP + 0xa]
p3224
asV001042a2
p3225
(lp3226
VMOV RSI,qword ptr [RSP]
p3227
aVMOV RDX,R15
p3228
aVSUB RAX,R15
p3229
aVNOP dword ptr [RAX]
p3230
asV001033f1
p3231
(lp3232
VNOP dword ptr [RAX]
p3233
asV00103bb9
p3234
(lp3235
VCMP byte ptr [RSP + 0xb],0x0
p3236
aVJZ 0x00103b30
p3237
asV001033de
p3238
(lp3239
VTEST RBP,RBP
p3240
aVSETZ AL
p3241
aVAND AL,byte ptr [RSP + 0x35]
p3242
aVMOV R14D,EAX
p3243
aVJZ 0x00102f04
p3244
asV001057ff
p3245
(lp3246
VSUB R8D,0x1
p3247
aVJNZ 0x001057f0
p3248
asV001053bd
p3249
(lp3250
VSUB RSP,0x8
p3251
aVCALL 0x00105530
p3252
asV001031de
p3253
(lp3254
VMOV EDI,0x20f
p3255
aVCALL 0x001021a0
p3256
aVCMP EAX,0x5274616c
p3257
aVSETZ AL
p3258
aVMOVZX EAX,AL
p3259
aVIMUL R12D,EAX
p3260
asV00104aa0
p3261
(lp3262
VCALL 0x001016b0
p3263
asV001066ea
p3264
(lp3265
VMOV RDI,R14
p3266
aVCALL 0x00101680
p3267
aVCMP EAX,-0x1
p3268
aVMOV EDI,EAX
p3269
aVJNZ 0x001065aa
p3270
asV00101f23
p3271
(lp3272
VADD RSP,0x11858
p3273
aVPOP RBX
p3274
aVPOP RBP
p3275
aVPOP R12
p3276
aVPOP R13
p3277
aVPOP R14
p3278
aVPOP R15
p3279
aVRET
p3280
asV001042d0
p3281
(lp3282
VMOV RAX,qword ptr [RSP]
p3283
aVMOV byte ptr [RAX + R15*0x1],0x0
p3284
aVJMP 0x00103c04
p3285
asV00101f0c
p3286
(lp3287
VMOV RAX,qword ptr [RSP + 0x11848]
p3288
aVXOR RAX,qword ptr FS:[0x28]
p3289
aVJNZ 0x00102186
p3290
asV001020f0
p3291
(lp3292
VMOV ESI,0xa
p3293
aVMOV RDI,R15
p3294
aVCALL 0x001017b0
p3295
aVADD EAX,0x1
p3296
aVJNZ 0x00102029
p3297
asV00105dc6
p3298
(lp3299
VMOV EDI,0x34a
p3300
aVADD RBP,RBX
p3301
aVCALL 0x001021a0
p3302
aVMOV EDI,0x34a
p3303
aVMOV EBX,EAX
p3304
aVCALL 0x001021a0
p3305
aVCMP EAX,0x6c617317
p3306
aVJNZ 0x00105e40
p3307
asV0010282b
p3308
(lp3309
VCALL 0x00101740
p3310
aVLEA RCX,[0x106d90]
p3311
aVLEA RDX,[0x106926]
p3312
aVMOV RSI,RAX
p3313
aVMOV EDI,0x1
p3314
aVXOR EAX,EAX
p3315
aVCALL 0x00101940
p3316
aVXOR ESI,ESI
p3317
aVMOV EDI,0x5
p3318
aVCALL 0x00101930
p3319
aVTEST RAX,RAX
p3320
aVJZ 0x00102876
p3321
asV001042c7
p3322
(lp3323
VCMP R15,R13
p3324
aVJNC 0x00103c04
p3325
asV001064a6
p3326
(lp3327
VLEA R15,[0x1072d9]
p3328
asV001053b8
p3329
(lp3330
VMOV RSI,RAX
p3331
aVJMP 0x00105370
p3332
asV001055f6
p3333
(lp3334
VXOR ECX,ECX
p3335
aVMOV RSI,R15
p3336
aVMOV RDI,RBP
p3337
aVCALL 0x001017f0
p3338
aVMOV RCX,qword ptr [R15]
p3339
aVMOV RBX,RAX
p3340
aVCMP RCX,RBP
p3341
aVJZ 0x00105638
p3342
asV00105feb
p3343
(lp3344
VMOV EDI,0x306
p3345
aVCALL 0x001021a0
p3346
aVCMP EAX,0x5b73616c
p3347
aVSETZ AL
p3348
aVMOVZX EAX,AL
p3349
aVIMUL R13D,EAX
p3350
asV001042c4
p3351
(lp3352
VMOV R15,RDX
p3353
asV00103bcb
p3354
(lp3355
VSUB RSP,0x8
p3356
aVMOV RCX,RBP
p3357
aVMOV RDX,R12
p3358
aVPUSH qword ptr [RSP + 0x50]
p3359
aVPUSH qword ptr [RSP + 0x60]
p3360
aVMOV RSI,R13
p3361
aVPUSH 0x0
p3362
aVMOV R9D,dword ptr [RSP + 0x88]
p3363
aVMOV R8D,dword ptr [RSP + 0x2c]
p3364
aVMOV RDI,qword ptr [RSP + 0x20]
p3365
aVAND R9D,0xfffffffd
p3366
aVCALL 0x001038c0
p3367
aVADD RSP,0x20
p3368
aVMOV R15,RAX
p3369
asV001055f1
p3370
(lp3371
VCMP BL,0x2d
p3372
aVJZ 0x00105648
p3373
asV001053b0
p3374
(lp3375
VMOV RAX,RSI
p3376
aVMUL RDX
p3377
aVJO 0x001053bd
p3378
asV0010618a
p3379
(lp3380
VMOV EDI,0x316
p3381
aVLEA R13,[RBX + RBP*0x1]
p3382
aVCALL 0x001021a0
p3383
aVMOV EDI,0x316
p3384
aVMOV EBP,EAX
p3385
aVCALL 0x001021a0
p3386
aVCMP EAX,0x6c61734b
p3387
aVJZ 0x001061c3
p3388
asV00104ec0
p3389
(lp3390
VMOV RBX,qword ptr [RBX]
p3391
aVLEA RSI,[0x107297]
p3392
aVMOV EDX,0x5
p3393
aVXOR EDI,EDI
p3394
aVCALL 0x00101740
p3395
aVADD RSP,0x28
p3396
aVMOV RCX,RBX
p3397
aVMOV RDI,RBP
p3398
aVPOP RBX
p3399
aVPOP RBP
p3400
aVPOP R12
p3401
aVPOP R13
p3402
aVPOP R14
p3403
aVPOP R15
p3404
aVMOV RDX,RAX
p3405
aVMOV ESI,0x1
p3406
aVXOR EAX,EAX
p3407
aVJMP 0x001019e0
p3408
asV00106152
p3409
(lp3410
VMOV EDI,0x314
p3411
aVADD RBP,RBX
p3412
aVCALL 0x001021a0
p3413
aVMOV EDI,0x314
p3414
aVMOV EBX,EAX
p3415
aVCALL 0x001021a0
p3416
aVCMP EAX,0x6c61734d
p3417
aVJZ 0x0010618a
p3418
asV00104eaa
p3419
(lp3420
VXOR EDI,EDI
p3421
aVCALL 0x00101740
p3422
aVMOV R10,qword ptr [RSP + 0x18]
p3423
aVPUSH R10
p3424
aVJMP 0x00104e24
p3425
asV00103dbc
p3426
(lp3427
VLEA RAX,[R15 + 0x2]
p3428
aVCMP R13,RAX
p3429
aVJBE 0x00103dcf
p3430
asV001046f7
p3431
(lp3432
VSUB RSP,0x8
p3433
aVCALL 0x001016b0
p3434
asV001057e5
p3435
(lp3436
VMOV R8D,0x8
p3437
aVXOR R9D,R9D
p3438
aVNOP
p3439
asV001022d3
p3440
(lp3441
VLEA R14,[RBX + R12*0x1]
p3442
aVMOVSX EDI,byte ptr [RSP + R14*0x1 + 0xc50]
p3443
aVMOV R15D,EDI
p3444
aVCALL 0x00102e30
p3445
aVCMP R15B,0x3d
p3446
aVJZ 0x001022f6
p3447
asV00105a68
p3448
(lp3449
VMOV EDI,0x232
p3450
aVCALL 0x001021a0
p3451
aVCMP EAX,0x2f74616c
p3452
aVSETZ AL
p3453
aVMOVZX EAX,AL
p3454
aVIMUL EBX,EAX
p3455
asV0010613a
p3456
(lp3457
VMOV EDI,0x312
p3458
aVCALL 0x001021a0
p3459
aVCMP EAX,0x4f73616c
p3460
aVSETZ AL
p3461
aVMOVZX EAX,AL
p3462
aVIMUL EBX,EAX
p3463
asV0010528c
p3464
(lp3465
VMOV RAX,RBX
p3466
aVADD RBX,0x8
p3467
aVJMP 0x00105246
p3468
asV00105fa6
p3469
(lp3470
VAND dword ptr [RBX],0xffffffef
p3471
aVMOV qword ptr [RBX + 0x90],RAX
p3472
aVXOR EAX,EAX
p3473
asV0010419c
p3474
(lp3475
VCMP RAX,-0x2
p3476
aVJZ 0x00104353
p3477
asV00103dc5
p3478
(lp3479
VMOV RAX,qword ptr [RSP]
p3480
aVMOV byte ptr [RAX + R15*0x1 + 0x2],0x27
p3481
asV001035ed
p3482
(lp3483
VADD RSP,0x20
p3484
aVPOP RBX
p3485
aVPOP RBP
p3486
aVPOP R12
p3487
aVPOP R13
p3488
aVPOP R14
p3489
aVRET
p3490
asV00101be1
p3491
(lp3492
VCALL 0x001016c0
p3493
aVMOV ESI,dword ptr [RAX]
p3494
aVLEA RDX,[0x106963]
p3495
aVMOV RCX,RBP
p3496
aVMOV EDI,0x1
p3497
aVXOR EAX,EAX
p3498
aVCALL 0x00101960
p3499
aVJMP 0x00101c0e
p3500
asV00102cd2
p3501
(lp3502
VCMP RCX,0x3
p3503
aVMOV byte ptr [RDX + 0x2],0x3d
p3504
aVJZ 0x00102d02
p3505
asV00105053
p3506
(lp3507
VMOV R8,qword ptr [RSP + 0x20]
p3508
aVMOV RCX,RBX
p3509
aVMOV RDX,RAX
p3510
aVMOV RDI,RBP
p3511
aVMOV ESI,0x1
p3512
aVXOR EAX,EAX
p3513
aVCALL 0x001019e0
p3514
aVADD RSP,0x20
p3515
aVADD RSP,0x28
p3516
aVPOP RBX
p3517
aVPOP RBP
p3518
aVPOP R12
p3519
aVPOP R13
p3520
aVPOP R14
p3521
aVPOP R15
p3522
aVRET
p3523
asV001046e9
p3524
(lp3525
VTEST RDX,RDX
p3526
aVJZ 0x001046f7
p3527
asV001022c9
p3528
(lp3529
VTEST RBP,RBP
p3530
aVJZ 0x00102270
p3531
asV001057d7
p3532
(lp3533
VSUB R8D,0x1
p3534
aVJNZ 0x001057c8
p3535
asV00106380
p3536
(lp3537
VPUSH R15
p3538
aVPUSH R14
p3539
aVMOV EDI,0xe
p3540
aVPUSH R13
p3541
aVPUSH R12
p3542
aVPUSH RBP
p3543
aVPUSH RBX
p3544
aVSUB RSP,0xa8
p3545
aVMOV RAX,qword ptr FS:[0x28]
p3546
aVMOV qword ptr [RSP + 0x98],RAX
p3547
aVXOR EAX,EAX
p3548
aVCALL 0x001018d0
p3549
aVMOV R15,qword ptr [0x006d9b38]
p3550
aVTEST RAX,RAX
p3551
aVMOV RBX,RAX
p3552
aVLEA RAX,[0x1072d9]
p3553
aVCMOVZ RBX,RAX
p3554
aVTEST R15,R15
p3555
aVJNZ 0x001063ea
p3556
asV001033b4
p3557
(lp3558
VMOV ESI,dword ptr [RBX]
p3559
aVMOV EDI,0x23d
p3560
aVCALL 0x00102190
p3561
aVMOV ESI,dword ptr [RBX]
p3562
aVMOV EDI,0x340
p3563
aVCALL 0x00102190
p3564
asV001022c6
p3565
(lp3566
VXOR R12D,R12D
p3567
asV001044a1
p3568
(lp3569
VMOV RDI,RBX
p3570
aVMOV qword ptr [RSP + 0x10],RDX
p3571
aVCALL 0x00105370
p3572
aVMOV RDX,qword ptr [RSP + 0x10]
p3573
aVMOV RBX,RAX
p3574
aVMOV qword ptr [0x00309060],RAX
p3575
asV00101bca
p3576
(lp3577
VLEA RSI,[0x10698c]
p3578
aVMOV RDI,RBP
p3579
aVCALL 0x00101990
p3580
aVTEST RAX,RAX
p3581
aVMOV RBX,RAX
p3582
aVJNZ 0x00101c0e
p3583
asV0010309d
p3584
(lp3585
VMOV ESI,dword ptr [RBX]
p3586
aVMOV EDI,0x324
p3587
aVCALL 0x00102190
p3588
aVMOV ESI,dword ptr [RBX]
p3589
aVMOV EDI,0x246
p3590
aVCALL 0x00102190
p3591
aVMOV ESI,dword ptr [RBX]
p3592
aVMOV EDI,0x349
p3593
aVCALL 0x00102190
p3594
aVTEST RBP,RBP
p3595
aVJZ 0x0010353d
p3596
asV00105c90
p3597
(lp3598
VMOV dword ptr [RBX],EBP
p3599
aVMOV EAX,0xffffffff
p3600
aVJMP 0x00105c54
p3601
asV001035dd
p3602
(lp3603
VMOV RCX,qword ptr [RSP + 0x18]
p3604
aVXOR RCX,qword ptr FS:[0x28]
p3605
aVJNZ 0x0010361a
p3606
asV001057bc
p3607
(lp3608
VMOV R8D,0x7
p3609
aVXOR R9D,R9D
p3610
aVNOP dword ptr [RAX]
p3611
asV00103db2
p3612
(lp3613
VMOV RAX,qword ptr [RSP]
p3614
aVMOV byte ptr [RAX + R15*0x1 + 0x1],0x5c
p3615
asV001022ee
p3616
(lp3617
VTEST AL,AL
p3618
aVJZ 0x00102478
p3619
asV00102ac0
p3620
(lp3621
VCMP byte ptr [RBX + 0x3],0x3d
p3622
aVJNZ 0x001029c5
p3623
asV00106172
p3624
(lp3625
VMOV EDI,0x314
p3626
aVCALL 0x001021a0
p3627
aVCMP EAX,0x4d73616c
p3628
aVSETZ AL
p3629
aVMOVZX EAX,AL
p3630
aVIMUL EBX,EAX
p3631
asV00105080
p3632
(lp3633
VMOV R9,qword ptr [RBX + 0x10]
p3634
aVMOV R13,qword ptr [RBX + 0x30]
p3635
aVLEA RSI,[0x107460]
p3636
aVMOV R12,qword ptr [RBX + 0x28]
p3637
aVMOV R15,qword ptr [RBX + 0x20]
p3638
aVMOV EDX,0x5
p3639
aVMOV R14,qword ptr [RBX + 0x18]
p3640
aVMOV R8,qword ptr [RBX + 0x8]
p3641
aVXOR EDI,EDI
p3642
aVMOV qword ptr [RSP + 0x8],R9
p3643
aVMOV RBX,qword ptr [RBX]
p3644
aVMOV qword ptr [RSP],R8
p3645
aVCALL 0x00101740
p3646
aVPUSH R13
p3647
aVPUSH R12
p3648
aVPUSH R15
p3649
aVPUSH R14
p3650
aVMOV R9,qword ptr [RSP + 0x28]
p3651
aVJMP 0x00105053
p3652
asV001031a4
p3653
(lp3654
VMOV EDI,0x112
p3655
aVCALL 0x001021a0
p3656
aVCMP EAX,0x4f75616c
p3657
aVSETZ AL
p3658
aVMOVZX EAX,AL
p3659
aVIMUL R12D,EAX
p3660
asV00102aae
p3661
(lp3662
VMOV qword ptr [R12],R15
p3663
aVMOV EAX,0x1
p3664
aVJMP 0x001029cb
p3665
asV001022f6
p3666
(lp3667
VADD R12,0x1
p3668
aVTEST RBP,RBP
p3669
aVJNZ 0x001022ce
p3670
asV00103ba9
p3671
(lp3672
VTEST R14,R14
p3673
aVJNZ 0x00103b30
p3674
asV00103ba5
p3675
(lp3676
VTEST AL,AL
p3677
aVJNZ 0x00103b30
p3678
asV001044bd
p3679
(lp3680
VMOV EDI,dword ptr [0x00309058]
p3681
aVXOR ESI,ESI
p3682
aVSUB RDX,RDI
p3683
aVSHL RDI,0x4
p3684
aVSHL RDX,0x4
p3685
aVADD RDI,RBX
p3686
aVCALL 0x00101800
p3687
aVMOV dword ptr [0x00309058],R12D
p3688
asV00105a80
p3689
(lp3690
VMOV EDI,0x236
p3691
aVADD RBP,RBX
p3692
aVCALL 0x001021a0
p3693
aVMOV EDI,0x236
p3694
aVMOV EBX,EAX
p3695
aVCALL 0x001021a0
p3696
aVCMP EAX,0x6c61742b
p3697
aVJZ 0x00105ab8
p3698
asV001033cc
p3699
(lp3700
VADD RBX,0x4
p3701
aVTEST R13B,R13B
p3702
aVMOV RDX,qword ptr [RSP + 0x50]
p3703
aVJNZ 0x001032f0
p3704
asV00105fc0
p3705
(lp3706
VPUSH R13
p3707
aVPUSH R12
p3708
aVMOV R12,RDI
p3709
aVPUSH RBP
p3710
aVPUSH RBX
p3711
aVMOV EDI,0x306
p3712
aVSUB RSP,0x8
p3713
aVCALL 0x001021a0
p3714
aVMOV EDI,0x306
p3715
aVMOV R13D,EAX
p3716
aVCALL 0x001021a0
p3717
aVCMP EAX,0x6c61735b
p3718
aVJZ 0x00106004
p3719
asV00103de0
p3720
(lp3721
VCMP qword ptr [RSP + 0x40],0x1
p3722
aVJNZ 0x001040d0
p3723
asV00102cf0
p3724
(lp3725
VAND R8D,0x3c
p3726
aVCMP RCX,0x3
p3727
aVMOVZX EAX,byte ptr [R9 + R8*0x1]
p3728
aVMOV byte ptr [RDX + 0x2],AL
p3729
aVJNZ 0x00102cdc
p3730
asV00103dcf
p3731
(lp3732
VADD R15,0x3
p3733
aVMOV EBX,0x27
p3734
aVJMP 0x00103b30
p3735
asV001066a1
p3736
(lp3737
VMOV R15,qword ptr [RSP]
p3738
aVMOV RDI,-0x2
p3739
aVMOV RSI,qword ptr [RSP + 0x10]
p3740
aVSUB RDI,RDX
p3741
aVADD RDX,0x1
p3742
aVSUB R15,R13
p3743
aVADD RDI,R15
p3744
aVADD RDI,R12
p3745
aVCALL 0x00101890
p3746
aVMOV RSI,qword ptr [RSP + 0x8]
p3747
aVLEA RDI,[R12 + R15*0x1 + -0x1]
p3748
aVLEA RDX,[R13 + 0x1]
p3749
aVMOV R15,R12
p3750
aVCALL 0x00101890
p3751
aVMOV RAX,qword ptr [R14 + 0x8]
p3752
aVCMP RAX,qword ptr [R14 + 0x10]
p3753
aVJC 0x0010659f
p3754
asV00102cdc
p3755
(lp3756
VCMP RCX,0x4
p3757
aVMOV byte ptr [RDX + 0x3],0x3d
p3758
aVJZ 0x00102d02
p3759
asV001057f0
p3760
(lp3761
VMOV RAX,RBX
p3762
aVMUL RSI
p3763
aVMOV RBX,RAX
p3764
aVJO 0x00105924
p3765
asV00102ce6
p3766
(lp3767
VXOR ESI,ESI
p3768
aVJMP 0x00102c7e
p3769
asV001046ee
p3770
(lp3771
VMOV qword ptr [RDI + 0x28],RSI
p3772
aVMOV qword ptr [RDI + 0x30],RDX
p3773
aVRET
p3774
asV001022ce
p3775
(lp3776
VCMP RBP,R12
p3777
aVJBE 0x00102270
p3778
asV00102aa3
p3779
(lp3780
VCMP qword ptr [RSP],0x4
p3781
aVJNZ 0x001029c5
p3782
asV001057dd
p3783
(lp3784
VOR EBP,R9D
p3785
aVJMP 0x00105750
p3786
asV00105fb2
p3787
(lp3788
VPOP RBX
p3789
aVPOP RBP
p3790
aVPOP R12
p3791
aVRET
p3792
asV00101df0
p3793
(lp3794
VCMP byte ptr [0x003090c8],0x0
p3795
aVJNZ 0x00101e28
p3796
asV00103a7d
p3797
(lp3798
VCMP EAX,0x3
p3799
aVJNZ 0x0010409b
p3800
asV00103087
p3801
(lp3802
VMOV RAX,qword ptr [RSP + 0x48]
p3803
aVTEST RAX,RAX
p3804
aVJZ 0x0010309d
p3805
asV00106591
p3806
(lp3807
VMOV RAX,qword ptr [R14 + 0x8]
p3808
aVCMP RAX,qword ptr [R14 + 0x10]
p3809
aVJNC 0x001066ea
p3810
asV00105261
p3811
(lp3812
VCALL 0x00104d10
p3813
aVMOV RAX,qword ptr [RSP + 0x78]
p3814
aVXOR RAX,qword ptr FS:[0x28]
p3815
aVJNZ 0x00105280
p3816
asV00106350
p3817
(lp3818
VADD RSP,0x8
p3819
aVMOV EAX,0xffffffff
p3820
aVPOP RBX
p3821
aVPOP RBP
p3822
aVPOP R12
p3823
aVPOP R13
p3824
aVRET
p3825
asV001035c8
p3826
(lp3827
VMOV RDX,qword ptr [RSP + 0x10]
p3828
aVMOV qword ptr [RBP],RDX
p3829
aVJMP 0x001035dd
p3830
asV001057a5
p3831
(lp3832
VMOV EDX,0x200
p3833
aVMOV RAX,RDX
p3834
aVMUL RBX
p3835
aVJO 0x00105836
p3836
asV001035c3
p3837
(lp3838
VTEST RBP,RBP
p3839
aVJZ 0x001035d8
p3840
asV001057a0
p3841
(lp3842
VADD RBX,RBX
p3843
aVJMP 0x00105750
p3844
asV001048f5
p3845
(lp3846
VMOV RDI,R12
p3847
aVCALL 0x001016a0
p3848
aVMOV qword ptr [0x00309060],RBX
p3849
asV0010415f
p3850
(lp3851
VMOV RAX,qword ptr [RSP + 0x20]
p3852
aVMOV RDX,qword ptr [RSP + 0x18]
p3853
aVMOV RCX,qword ptr [RSP + 0x10]
p3854
aVMOV RDI,qword ptr [RSP + 0x28]
p3855
aVLEA RBP,[RAX + RBX*0x1]
p3856
aVLEA R13,[R15 + RBP*0x1]
p3857
aVSUB RDX,RBP
p3858
aVMOV RSI,R13
p3859
aVCALL 0x00101790
p3860
aVTEST RAX,RAX
p3861
aVMOV R14,RAX
p3862
aVJZ 0x0010422b
p3863
asV001024d0
p3864
(lp3865
VLEA RSI,[0x106884]
p3866
aVXOR EDI,EDI
p3867
aVMOV EDX,0x5
p3868
aVCALL 0x00101740
p3869
aVMOV R15,RAX
p3870
aVCALL 0x001016c0
p3871
aVMOV ESI,dword ptr [RAX]
p3872
aVMOV RDX,R15
p3873
aVMOV EDI,0x1
p3874
aVXOR EAX,EAX
p3875
aVCALL 0x00101960
p3876
aVJMP 0x00102430
p3877
asV00103a86
p3878
(lp3879
VTEST byte ptr [RSP + 0x68],0x4
p3880
aVJZ 0x0010409b
p3881
asV0010657d
p3882
(lp3883
VLEA RAX,[RSP + 0x60]
p3884
aVMOV qword ptr [RSP + 0x8],RAX
p3885
aVLEA RAX,[RSP + 0x20]
p3886
aVMOV qword ptr [RSP + 0x10],RAX
p3887
asV00105c60
p3888
(lp3889
VMOV RDI,R12
p3890
aVCALL 0x001018a0
p3891
aVXOR ESI,ESI
p3892
aVMOV EDX,0x1
p3893
aVMOV EDI,EAX
p3894
aVCALL 0x001017d0
p3895
aVCMP RAX,-0x1
p3896
aVJNZ 0x00105c32
p3897
asV001037eb
p3898
(lp3899
VCMP DL,0x47
p3900
aVJZ 0x00103810
p3901
asV00105018
p3902
(lp3903
VMOV R8,qword ptr [RBX + 0x8]
p3904
aVMOV R12,qword ptr [RBX + 0x28]
p3905
aVLEA RSI,[0x107438]
p3906
aVMOV R15,qword ptr [RBX + 0x20]
p3907
aVMOV R14,qword ptr [RBX + 0x18]
p3908
aVMOV EDX,0x5
p3909
aVMOV R13,qword ptr [RBX + 0x10]
p3910
aVXOR EDI,EDI
p3911
aVMOV RBX,qword ptr [RBX]
p3912
aVMOV qword ptr [RSP],R8
p3913
aVCALL 0x00101740
p3914
aVSUB RSP,0x8
p3915
aVMOV R9,R13
p3916
aVPUSH R12
p3917
aVPUSH R15
p3918
aVPUSH R14
p3919
asV00105a0f
p3920
(lp3921
VMOV EDI,0x230
p3922
aVLEA R13,[RBX + RBP*0x1]
p3923
aVCALL 0x001021a0
p3924
aVMOV EDI,0x230
p3925
aVMOV EBP,EAX
p3926
aVCALL 0x001021a0
p3927
aVCMP EAX,0x6c617431
p3928
aVJZ 0x00105a48
p3929
asV00101de0
p3930
(lp3931
VPOP RBP
p3932
aVRET
p3933
asV00103078
p3934
(lp3935
VMOV EBP,EDX
p3936
asV00103a6e
p3937
(lp3938
VJMP RAX
p3939
asV00105497
p3940
(lp3941
VSUB RSP,0x8
p3942
aVCALL 0x00105530
p3943
asV00106102
p3944
(lp3945
VMOV EDI,0x310
p3946
aVCALL 0x001021a0
p3947
aVCMP EAX,0x5173616c
p3948
aVSETZ AL
p3949
aVMOVZX EAX,AL
p3950
aVIMUL EBP,EAX
p3951
asV00104b5e
p3952
(lp3953
VADD RSP,0x48
p3954
aVRET
p3955
asV00105252
p3956
(lp3957
VADD R9,0x1
p3958
aVCMP R9,0xa
p3959
aVJNZ 0x00105230
p3960
asV001059d7
p3961
(lp3962
VMOV EDI,0x22e
p3963
aVADD RBP,RBX
p3964
aVCALL 0x001021a0
p3965
aVMOV EDI,0x22e
p3966
aVMOV EBX,EAX
p3967
aVCALL 0x001021a0
p3968
aVCMP EAX,0x6c617433
p3969
aVJZ 0x00105a0f
p3970
asV001048e9
p3971
(lp3972
VLEA RBX,[0x309070]
p3973
aVCMP R12,RBX
p3974
aVJZ 0x00104904
p3975
asV00103faa
p3976
(lp3977
VLEA RAX,[0x106ffd]
p3978
aVMOV byte ptr [RSP + 0xb],0x1
p3979
aVMOV byte ptr [RSP + 0xa],0x0
p3980
aVMOV R11D,0x1
p3981
aVXOR R15D,R15D
p3982
aVMOV dword ptr [RSP + 0xc],0x2
p3983
aVMOV qword ptr [RSP + 0x38],RAX
p3984
aVJMP 0x00103970
p3985
asV001037f0
p3986
(lp3987
VLEA RAX,[0x106ffb]
p3988
aVLEA RDX,[0x106ffd]
p3989
aVCMP EBX,0x7
p3990
aVCMOVNZ RAX,RDX
p3991
aVADD RSP,0x8
p3992
aVPOP RBX
p3993
aVPOP RBP
p3994
aVRET
p3995
asV00105c54
p3996
(lp3997
VADD RSP,0x8
p3998
aVPOP RBX
p3999
aVPOP RBP
p4000
aVPOP R12
p4001
aVPOP R13
p4002
aVRET
p4003
asV0010632c
p4004
(lp4005
VCALL 0x001016c0
p4006
aVMOV dword ptr [RAX],0x0
p4007
aVADD RSP,0x8
p4008
aVMOV EAX,0xffffffff
p4009
aVPOP RBX
p4010
aVPOP RBP
p4011
aVPOP R12
p4012
aVPOP R13
p4013
aVRET
p4014
asV00104b63
p4015
(lp4016
VCALL 0x00101770
p4017
asV00103a70
p4018
(lp4019
VMOV EAX,dword ptr [RSP + 0xc]
p4020
aVCMP EAX,0x2
p4021
aVJZ 0x00104090
p4022
asV00102ec5
p4023
(lp4024
VLEA RAX,[RSP + 0x50]
p4025
aVMOV qword ptr [RSP + 0x8],RAX
p4026
aVLEA RAX,[RSP + 0x40]
p4027
aVMOV qword ptr [RSP + 0x20],RAX
p4028
aVLEA RAX,[RSP + 0x48]
p4029
aVMOV qword ptr [RSP + 0x28],RAX
p4030
asV001059bf
p4031
(lp4032
VMOV EDI,0x22c
p4033
aVCALL 0x001021a0
p4034
aVCMP EAX,0x3574616c
p4035
aVSETZ AL
p4036
aVMOVZX EAX,AL
p4037
aVIMUL EBX,EAX
p4038
asV00101dd4
p4039
(lp4040
VPOP RBP
p4041
aVJMP RAX
p4042
asV00105c7f
p4043
(lp4044
VADD RSP,0x8
p4045
aVPOP RBX
p4046
aVPOP RBP
p4047
aVPOP R12
p4048
aVPOP R13
p4049
aVJMP 0x00101720
p4050
asV00102cc1
p4051
(lp4052
VAND EAX,0x30
p4053
aVCMP RCX,0x2
p4054
aVMOVZX EAX,byte ptr [R9 + RAX*0x1]
p4055
aVMOV byte ptr [RDX + 0x1],AL
p4056
aVJZ 0x00102d02
p4057
asV00105285
p4058
(lp4059
VMOV dword ptr [RSP + 0x8],R10D
p4060
aVJMP 0x00105261
p4061
asV00105c7c
p4062
(lp4063
VMOV RDI,R12
p4064
asV00104192
p4065
(lp4066
VCMP RAX,-0x1
p4067
aVJZ 0x0010431e
p4068
asV001057c8
p4069
(lp4070
VMOV RAX,RBX
p4071
aVMUL RSI
p4072
aVMOV RBX,RAX
p4073
aVJO 0x00105942
p4074
asV00105280
p4075
(lp4076
VCALL 0x00101770
p4077
asV001046d0
p4078
(lp4079
VLEA RAX,[0x6d9b00]
p4080
aVTEST RDI,RDI
p4081
aVCMOVZ RDI,RAX
p4082
aVTEST RSI,RSI
p4083
aVMOV dword ptr [RDI],0x8
p4084
aVJZ 0x001046f7
p4085
asV00105a48
p4086
(lp4087
VMOV EDI,0x232
p4088
aVADD RBP,R13
p4089
aVCALL 0x001021a0
p4090
aVMOV EDI,0x232
p4091
aVMOV EBX,EAX
p4092
aVCALL 0x001021a0
p4093
aVCMP EAX,0x6c61742f
p4094
aVJZ 0x00105a80
p4095
asV0010611a
p4096
(lp4097
VMOV EDI,0x312
p4098
aVADD RBP,R13
p4099
aVCALL 0x001021a0
p4100
aVMOV EDI,0x312
p4101
aVMOV EBX,EAX
p4102
aVCALL 0x001021a0
p4103
aVCMP EAX,0x6c61734f
p4104
aVJZ 0x00106152
p4105
asV0010659f
p4106
(lp4107
VLEA RDX,[RAX + 0x1]
p4108
aVMOV qword ptr [R14 + 0x8],RDX
p4109
aVMOVZX EDI,byte ptr [RAX]
p4110
asV00103da9
p4111
(lp4112
VLEA RAX,[R15 + 0x1]
p4113
aVCMP R13,RAX
p4114
aVJBE 0x00103dbc
p4115
asV00102cb4
p4116
(lp4117
VSHL EAX,0x4
p4118
aVCMP RSI,0x1
p4119
aVJNZ 0x00102c08
p4120
asV00102ef1
p4121
(lp4122
VTEST RBP,RBP
p4123
aVSETZ AL
p4124
aVAND AL,byte ptr [RSP + 0x35]
p4125
aVMOV R14D,EAX
p4126
aVJNZ 0x001033f8
p4127
asV00103da0
p4128
(lp4129
VMOV RAX,qword ptr [RSP]
p4130
aVMOV byte ptr [RAX + R15*0x1],0x27
p4131
asV00105276
p4132
(lp4133
VADD RSP,0xb8
p4134
aVPOP RBX
p4135
aVPOP RBP
p4136
aVRET
p4137
asV00101baf
p4138
(lp4139
VCMP EAX,EBP
p4140
aVJGE 0x00101c00
p4141
asV001035d8
p4142
(lp4143
VMOV EAX,0x1
p4144
asV00106360
p4145
(lp4146
VCALL 0x001016c0
p4147
aVCMP dword ptr [RAX],0x9
p4148
aVSETNZ AL
p4149
aVADD RSP,0x8
p4150
aVMOVZX EAX,AL
p4151
aVPOP RBX
p4152
aVNEG EAX
p4153
aVPOP RBP
p4154
aVPOP R12
p4155
aVPOP R13
p4156
aVRET
p4157
asV00103091
p4158
(lp4159
VMOV ESI,dword ptr [RAX]
p4160
aVMOV EDI,0x11c
p4161
aVCALL 0x00102190
p4162
asV001059f7
p4163
(lp4164
VMOV EDI,0x22e
p4165
aVCALL 0x001021a0
p4166
aVCMP EAX,0x3374616c
p4167
aVSETZ AL
p4168
aVMOVZX EAX,AL
p4169
aVIMUL EBX,EAX
p4170
asV001057b6
p4171
(lp4172
VSHL RBX,0x9
p4173
aVJMP 0x00105750
p4174
asV0010525c
p4175
(lp4176
VTEST R11B,R11B
p4177
aVJNZ 0x00105285
p4178
asV0010307f
p4179
(lp4180
VLEA RBX,[R15 + 0x4]
p4181
aVMOV qword ptr [R12],R14
p4182
asV00105a30
p4183
(lp4184
VMOV EDI,0x230
p4185
aVCALL 0x001021a0
p4186
aVCMP EAX,0x3174616c
p4187
aVSETZ AL
p4188
aVMOVZX EAX,AL
p4189
aVIMUL EBP,EAX
p4190
asV00101df9
p4191
(lp4192
VCMP qword ptr [0x00308fe0],0x0
p4193
aVPUSH RBP
p4194
aVMOV RBP,RSP
p4195
aVJZ 0x00101e13
p4196
asV00103fd6
p4197
(lp4198
VLEA RAX,[0x106ffb]
p4199
aVMOV byte ptr [RSP + 0xb],0x1
p4200
aVMOV byte ptr [RSP + 0xa],0x1
p4201
aVMOV R11D,0x1
p4202
aVXOR R15D,R15D
p4203
aVMOV dword ptr [RSP + 0xc],0x3
p4204
aVMOV qword ptr [RSP + 0x38],RAX
p4205
aVJMP 0x00103970
p4206
asV00103a91
p4207
(lp4208
VLEA RAX,[R14 + 0x2]
p4209
aVMOV EBX,0x3f
p4210
aVCMP RAX,RBP
p4211
aVJNC 0x00103b30
p4212
asV0010307a
p4213
(lp4214
VCMP R14,RBX
p4215
aVJNZ 0x00103058
p4216
asV00101bb3
p4217
(lp4218
VMOV RBP,qword ptr [RBX + RAX*0x8]
p4219
aVLEA RSI,[0x106fea]
p4220
aVMOV RDI,RBP
p4221
aVCALL 0x00101880
p4222
aVTEST EAX,EAX
p4223
aVJZ 0x00101c07
p4224
asV00102ee3
p4225
(lp4226
VCMP byte ptr [RSP + 0x36],0x0
p4227
aVMOV RDX,R12
p4228
aVJNZ 0x001032db
p4229
asV00103a3d
p4230
(lp4231
VCMP byte ptr [RSP + 0xb],0x0
p4232
aVMOVZX R10D,byte ptr [RSP + 0x10]
p4233
aVJNZ 0x00103bc8
p4234
asV00105467
p4235
(lp4236
VMOV RDX,RAX
p4237
aVSHR RDX,1
p4238
aVLEA RAX,[RDX + RAX*0x1 + 0x1]
p4239
aVMOV qword ptr [RSI],RAX
p4240
aVMOV RSI,RAX
p4241
aVJMP 0x00105370
p4242
asV00103043
p4243
(lp4244
VTEST EBP,EBP
p4245
aVJZ 0x00103467
p4246
asV001059a2
p4247
(lp4248
VMOV EDI,0x22c
p4249
aVCALL 0x001021a0
p4250
aVMOV EDI,0x22c
p4251
aVMOV EBX,EAX
p4252
aVCALL 0x001021a0
p4253
aVCMP EAX,0x6c617435
p4254
aVJZ 0x001059d7
p4255
asV00105c29
p4256
(lp4257
VCALL 0x001018f0
p4258
aVTEST EAX,EAX
p4259
aVJNZ 0x00105c60
p4260
asV001048b0
p4261
(lp4262
VMOV RDI,qword ptr [RBX]
p4263
aVADD RBX,0x10
p4264
aVCALL 0x001016a0
p4265
aVCMP RBX,RBP
p4266
aVJNZ 0x001048b0
p4267
asV0010653b
p4268
(lp4269
VMOV RDI,RBP
p4270
aVCALL 0x001016a0
p4271
aVJMP 0x001064ad
p4272
asV0010459b
p4273
(lp4274
VMOV EAX,dword ptr [RSP + 0x18]
p4275
aVMOV dword ptr [R13],EAX
p4276
aVADD RSP,0x28
p4277
aVMOV RAX,R12
p4278
aVPOP RBX
p4279
aVPOP RBP
p4280
aVPOP R12
p4281
aVPOP R13
p4282
aVPOP R14
p4283
aVPOP R15
p4284
aVRET
p4285
asV0010302a
p4286
(lp4287
VMOV RAX,qword ptr [RSP + 0x10]
p4288
aVLEA R15,[RAX + RBX*0x8]
p4289
aVMOV RBX,qword ptr [R12]
p4290
aVMOV EBP,dword ptr [R15]
p4291
aVCMP EBP,0x4
p4292
aVJZ 0x00103460
p4293
asV0010326c
p4294
(lp4295
VMOV RSI,qword ptr [RSP + 0x18]
p4296
aVMOV EDI,EBP
p4297
aVMOV RDX,R14
p4298
aVADD RDI,R12
p4299
aVMOV RCX,R15
p4300
aVADD RDI,RBX
p4301
aVCALL 0x001028f0
p4302
aVMOV ESI,dword ptr [RBX]
p4303
aVMOV EDI,0x209
p4304
aVMOV R14D,EAX
p4305
aVCALL 0x00102190
p4306
aVMOV ESI,dword ptr [RBX]
p4307
aVMOV EDI,0x326
p4308
aVCALL 0x00102190
p4309
aVMOV ESI,dword ptr [RBX]
p4310
aVMOV EDI,0x248
p4311
aVCALL 0x00102190
p4312
aVMOV ESI,dword ptr [RBX]
p4313
aVMOV EDI,0x34b
p4314
aVCALL 0x00102190
p4315
aVTEST R14B,R14B
p4316
aVMOV R12,qword ptr [RSP + 0x50]
p4317
aVJZ 0x00103535
p4318
asV0010568a
p4319
(lp4320
VMOVSX ESI,R12B
p4321
aVMOV RDI,R13
p4322
aVXOR EBP,EBP
p4323
aVCALL 0x001017a0
p4324
aVTEST RAX,RAX
p4325
aVMOV EBX,0x1
p4326
aVMOV RCX,qword ptr [RSP + 0x8]
p4327
aVJZ 0x00105648
p4328
asV00105e60
p4329
(lp4330
VMOV EDI,0x349
p4331
aVCALL 0x001021a0
p4332
aVCMP EAX,0x1873616c
p4333
aVSETZ AL
p4334
aVMOVZX EAX,AL
p4335
aVIMUL EBP,EAX
p4336
aVJMP 0x00105dc6
p4337
asV00103c80
p4338
(lp4339
VCMP byte ptr [RSP + 0xa],0x0
p4340
aVMOV EAX,0x62
p4341
aVJNZ 0x00103c4e
p4342
asV00101fe8
p4343
(lp4344
VMOV qword ptr [RSP + 0x28],R14
p4345
aVMOV qword ptr [RSP + 0x38],RBP
p4346
aVMOV R14,R13
p4347
aVMOV RBP,R15
p4348
aVMOV R13,R11
p4349
aVMOV qword ptr [RSP + 0x30],RBX
p4350
aVMOV R15,qword ptr [RSP + 0x18]
p4351
aVJMP 0x00102031
p4352
asV001037ad
p4353
(lp4354
VMOV RCX,qword ptr [0x003090c0]
p4355
aVLEA RDI,[0x106fa8]
p4356
aVMOV EDX,0x37
p4357
aVMOV ESI,0x1
p4358
aVCALL 0x001019d0
p4359
aVCALL 0x001016b0
p4360
asV00101da0
p4361
(lp4362
VLEA RDI,[0x309080]
p4363
aVLEA RSI,[0x309080]
p4364
aVPUSH RBP
p4365
aVSUB RSI,RDI
p4366
aVMOV RBP,RSP
p4367
aVSAR RSI,0x3
p4368
aVMOV RAX,RSI
p4369
aVSHR RAX,0x3f
p4370
aVADD RSI,RAX
p4371
aVSAR RSI,1
p4372
aVJZ 0x00101de0
p4373
asV001028fa
p4374
(lp4375
VPUSH R15
p4376
aVPUSH R14
p4377
aVLEA R14,[0x106e60]
p4378
aVPUSH R13
p4379
aVPUSH R12
p4380
aVMOV R13,RCX
p4381
aVPUSH RBP
p4382
aVPUSH RBX
p4383
aVMOV RBX,RDI
p4384
aVMOV R12,RDX
p4385
aVSUB RSP,0x18
p4386
aVMOV R15,qword ptr [RDX]
p4387
aVMOV qword ptr [RSP],RSI
p4388
aVMOV ESI,dword ptr [RDI]
p4389
aVMOV EDI,0x308
p4390
aVCALL 0x00102190
p4391
aVMOV ESI,dword ptr [RBX]
p4392
aVMOV EDI,0x22a
p4393
aVCALL 0x00102190
p4394
aVMOV ESI,dword ptr [RBX]
p4395
aVMOV EDI,0x32d
p4396
aVCALL 0x00102190
p4397
aVMOVZX EAX,byte ptr [RBX]
p4398
aVMOV ESI,dword ptr [RBX]
p4399
aVMOV EDI,0xde
p4400
aVMOVZX EBP,byte ptr [R14 + RAX*0x1]
p4401
aVCALL 0x00102190
p4402
aVTEST BPL,BPL
p4403
aVJS 0x001029c9
p4404
asV00106548
p4405
(lp4406
VMOV RDX,R14
p4407
aVMOV RSI,R13
p4408
aVMOV RDI,RBP
p4409
aVCALL 0x00101890
p4410
aVJMP 0x001064f9
p4411
asV00105c0c
p4412
(lp4413
VMOV EAX,EBX
p4414
aVADD RAX,RBP
p4415
aVLEA RAX,[RAX + RAX*0x2]
p4416
aVLEA RAX,[RAX + RAX*0x8]
p4417
aVLEA RDI,[R12 + RAX*0x8]
p4418
aVCALL 0x001018a0
p4419
aVTEST EAX,EAX
p4420
aVMOV RDI,R12
p4421
aVJS 0x00105c7f
p4422
asV00105458
p4423
(lp4424
VMOV RDX,-0x5555555555555557
p4425
aVCMP RAX,RDX
p4426
aVJA 0x00105497
p4427
asV00104123
p4428
(lp4429
VLEA RAX,[RSP + 0x8c]
p4430
aVXOR EDI,EDI
p4431
aVMOV byte ptr [RSP + 0x6f],BL
p4432
aVMOV qword ptr [RSP + 0x70],R15
p4433
aVMOV byte ptr [RSP + 0x6e],R10B
p4434
aVMOV RBX,RDI
p4435
aVMOV qword ptr [RSP + 0x28],RAX
p4436
aVMOV qword ptr [RSP + 0x20],R14
p4437
aVMOV R15,R9
p4438
aVMOV qword ptr [RSP + 0x60],R11
p4439
aVMOV qword ptr [RSP + 0x78],R8
p4440
aVMOV qword ptr [RSP + 0x58],R13
p4441
aVMOV qword ptr [RSP + 0x18],RBP
p4442
asV00102186
p4443
(lp4444
VCALL 0x00101770
p4445
asV00101fe0
p4446
(lp4447
VXOR R11D,R11D
p4448
aVTEST R15,R15
p4449
aVJZ 0x00101fc0
p4450
asV00103c6d
p4451
(lp4452
VADD R15,0x1
p4453
aVJMP 0x00103b70
p4454
asV001039f9
p4455
(lp4456
VCMP RBX,RBP
p4457
aVMOV byte ptr [RSP + 0x10],R10B
p4458
aVJA 0x00104080
p4459
asV00105450
p4460
(lp4461
VTEST RDI,RDI
p4462
aVMOV RAX,qword ptr [RSI]
p4463
aVJZ 0x00105480
p4464
asV00101fca
p4465
(lp4466
VCMP R14,0x7800
p4467
aVJZ 0x00101e8c
p4468
asV0010543c
p4469
(lp4470
VSUB RSP,0x8
p4471
aVCALL 0x00105530
p4472
asV0010676a
p4473
(lp4474
VADD RAX,qword ptr [RSP]
p4475
aVMOV RDI,R15
p4476
aVLEA RCX,[RAX + 0x2]
p4477
aVLEA RSI,[RAX + 0x3]
p4478
aVMOV qword ptr [RSP],RCX
p4479
aVCALL 0x00101910
p4480
aVMOV RDX,qword ptr [RSP + 0x18]
p4481
aVMOV R12,RAX
p4482
aVJMP 0x00106698
p4483
asV00101fd7
p4484
(lp4485
VJMP 0x00101ecb
p4486
asV00103c5f
p4487
(lp4488
VCMP R13,R15
p4489
aVJBE 0x00103c6d
p4490
asV00105246
p4491
(lp4492
VMOV RAX,qword ptr [RAX]
p4493
aVTEST RAX,RAX
p4494
aVMOV qword ptr [R8 + R9*0x8],RAX
p4495
aVJZ 0x0010525c
p4496
asV00105c3e
p4497
(lp4498
VCALL 0x001016c0
p4499
aVMOV EBP,dword ptr [RAX]
p4500
aVMOV RDI,R12
p4501
aVMOV RBX,RAX
p4502
aVCALL 0x00101720
p4503
aVTEST EBP,EBP
p4504
aVJNZ 0x00105c90
p4505
asV00103a5d
p4506
(lp4507
VLEA RSI,[0x107064]
p4508
aVMOVZX EAX,BL
p4509
aVMOVSXD RAX,dword ptr [RSI + RAX*0x4]
p4510
aVADD RAX,RSI
p4511
asV001035a9
p4512
(lp4513
VLEA R8,[RSP + 0x10]
p4514
aVMOV RCX,RAX
p4515
aVMOV RDX,R14
p4516
aVMOV RSI,R13
p4517
aVMOV RDI,R12
p4518
aVCALL 0x00102e60
p4519
aVTEST AL,AL
p4520
aVJZ 0x00103600
p4521
asV00103c9b
p4522
(lp4523
VADD R14,0x1
p4524
aVTEST R10B,R10B
p4525
aVJNZ 0x00103c5f
p4526
asV00104395
p4527
(lp4528
VJMP 0x001043b7
p4529
asV00103064
p4530
(lp4531
VLEA EDX,[RBP + 0x1]
p4532
aVCMP EDX,0x4
p4533
aVMOV dword ptr [R15],EDX
p4534
aVMOV byte ptr [R15 + RBP*0x1 + 0x4],AL
p4535
aVJZ 0x001034c0
p4536
asV00104390
p4537
(lp4538
VCMP byte ptr [RCX],0x0
p4539
aVJNZ 0x001043a7
p4540
asV00105480
p4541
(lp4542
VTEST RAX,RAX
p4543
aVMOV EDX,0x80
p4544
aVCMOVZ RAX,RDX
p4545
aVMOV qword ptr [RSI],RAX
p4546
aVMOV RSI,RAX
p4547
aVJMP 0x00105370
p4548
asV001048d2
p4549
(lp4550
VCALL 0x001016a0
p4551
aVMOV qword ptr [0x00309070],0x100
p4552
aVMOV qword ptr [0x00309078],RBX
p4553
asV00102eab
p4554
(lp4555
VTEST RDX,RDX
p4556
aVMOV EAX,dword ptr [RDI]
p4557
aVSETNZ byte ptr [RSP + 0x35]
p4558
aVMOVZX ECX,byte ptr [RSP + 0x35]
p4559
aVTEST EAX,EAX
p4560
aVSETZ AL
p4561
aVAND EAX,ECX
p4562
aVMOV byte ptr [RSP + 0x36],AL
p4563
asV0010304b
p4564
(lp4565
VCMP R14,RBX
p4566
aVJBE 0x001034b3
p4567
asV00105e80
p4568
(lp4569
VMOV EDI,0x343
p4570
aVCALL 0x001021a0
p4571
aVCMP EAX,0x1e73616c
p4572
aVSETZ AL
p4573
aVMOVZX EAX,AL
p4574
aVIMUL EBX,EAX
p4575
aVJMP 0x00105da2
p4576
asV00101dc8
p4577
(lp4578
VMOV RAX,qword ptr [0x00308fd8]
p4579
aVTEST RAX,RAX
p4580
aVJZ 0x00101de0
p4581
asV00106328
p4582
(lp4583
VTEST EAX,EAX
p4584
aVJNZ 0x00106350
p4585
asV00103a4e
p4586
(lp4587
VNOP
p4588
asV00105236
p4589
(lp4590
VMOV EAX,R10D
p4591
aVMOV R11D,0x1
p4592
aVADD R10D,0x8
p4593
aVADD RAX,RBP
p4594
asV00103058
p4595
(lp4596
VADD RBX,0x1
p4597
aVMOVZX EAX,byte ptr [RBX + -0x1]
p4598
aVCMP AL,0xa
p4599
aVJZ 0x0010307a
p4600
asV00103c8c
p4601
(lp4602
VNOP dword ptr [RAX]
p4603
asV00103054
p4604
(lp4605
VNOP dword ptr [RAX]
p4606
asV00105230
p4607
(lp4608
VCMP R10D,0x2f
p4609
aVJA 0x0010528c
p4610
asV001024a0
p4611
(lp4612
VLEA RSI,[0x10689b]
p4613
aVXOR EDI,EDI
p4614
aVMOV EDX,0x5
p4615
aVCALL 0x00101740
p4616
aVXOR ESI,ESI
p4617
aVMOV RDX,RAX
p4618
aVMOV EDI,0x1
p4619
aVXOR EAX,EAX
p4620
aVCALL 0x00101960
p4621
aVJMP 0x00102435
p4622
asV001048c1
p4623
(lp4624
VMOV RDI,qword ptr [R12 + 0x8]
p4625
aVLEA RBX,[0x6d9a00]
p4626
aVCMP RDI,RBX
p4627
aVJZ 0x001048e9
p4628
asV0010630e
p4629
(lp4630
VTEST RBP,RBP
p4631
aVMOV EAX,0xffffffff
p4632
aVJZ 0x00106360
p4633
asV0010678f
p4634
(lp4635
VMOV RDI,R15
p4636
aVLEA R15,[0x1072d9]
p4637
aVCALL 0x001016a0
p4638
aVMOV RDI,R14
p4639
aVCALL 0x00105960
p4640
aVJMP 0x0010653b
p4641
asV001037d0
p4642
(lp4643
VPUSH RBP
p4644
aVPUSH RBX
p4645
aVMOV RBP,RDI
p4646
aVMOV EBX,ESI
p4647
aVSUB RSP,0x8
p4648
aVCALL 0x00106380
p4649
aVMOVZX EDX,byte ptr [RAX]
p4650
aVAND EDX,0xffffffdf
p4651
aVCMP DL,0x55
p4652
aVJZ 0x00103860
p4653
asV00105c32
p4654
(lp4655
VMOV RDI,R12
p4656
aVCALL 0x00105ca0
p4657
aVTEST EAX,EAX
p4658
aVJZ 0x00105c7c
p4659
asV0010630a
p4660
(lp4661
VTEST EAX,EAX
p4662
aVJZ 0x00106318
p4663
asV00103a50
p4664
(lp4665
VMOVZX EBX,byte ptr [R8]
p4666
aVCMP BL,0x7e
p4667
aVJA 0x00103de0
p4668
asV00103c90
p4669
(lp4670
VCMP byte ptr [RSP + 0xb],0x0
p4671
aVJNZ 0x00103b3b
p4672
asV00106318
p4673
(lp4674
VADD RSP,0x8
p4675
aVPOP RBX
p4676
aVPOP RBP
p4677
aVPOP R12
p4678
aVPOP R13
p4679
aVRET
p4680
asV00106558
p4681
(lp4682
VLEA RSI,[0x106899]
p4683
aVMOV EDI,EAX
p4684
aVXOR R15D,R15D
p4685
aVCALL 0x00101920
p4686
aVTEST RAX,RAX
p4687
aVMOV R14,RAX
p4688
aVMOV qword ptr [RSP],0x0
p4689
aVJZ 0x00106753
p4690
asV00102153
p4691
(lp4692
VLEA RSI,[0x106884]
p4693
aVMOV EDX,0x5
p4694
aVXOR EDI,EDI
p4695
aVCALL 0x00101740
p4696
aVMOV RBP,RAX
p4697
aVCALL 0x001016c0
p4698
aVMOV ESI,dword ptr [RAX]
p4699
aVMOV RDX,RBP
p4700
aVXOR EAX,EAX
p4701
aVMOV EDI,0x1
p4702
aVCALL 0x00101960
p4703
aVMOV EAX,dword ptr [RBX]
p4704
aVJMP 0x00101edc
p4705
asV00106753
p4706
(lp4707
VMOV EDI,R12D
p4708
aVCALL 0x00101820
p4709
aVJMP 0x00106534
p4710
asV00103c3c
p4711
(lp4712
VCMP byte ptr [RSP + 0xb],0x0
p4713
aVJNZ 0x00103bc8
p4714
asV00105663
p4715
(lp4716
VADD RSP,0x28
p4717
aVPOP RBX
p4718
aVPOP RBP
p4719
aVPOP R12
p4720
aVPOP R13
p4721
aVPOP R14
p4722
aVPOP R15
p4723
aVRET
p4724
asV00102392
p4725
(lp4726
VMOV EDI,0xff
p4727
aVCALL 0x001021a0
p4728
aVCMP EAX,0x6275616c
p4729
aVSETZ AL
p4730
aVMOVZX EAX,AL
p4731
aVIMUL EBP,EAX
p4732
asV001039c6
p4733
(lp4734
VMOV RDI,R9
p4735
aVMOV qword ptr [RSP + 0x28],R11
p4736
aVMOV qword ptr [RSP + 0x20],R8
p4737
aVMOV qword ptr [RSP + 0x10],R9
p4738
aVMOV byte ptr [RSP + 0x18],AL
p4739
aVCALL 0x00101760
p4740
aVMOVZX R10D,byte ptr [RSP + 0x18]
p4741
aVMOV R11,qword ptr [RSP + 0x28]
p4742
aVMOV RBP,RAX
p4743
aVMOV R8,qword ptr [RSP + 0x20]
p4744
aVMOV R9,qword ptr [RSP + 0x10]
p4745
asV00103a07
p4746
(lp4747
VMOV RSI,qword ptr [RSP + 0x38]
p4748
aVMOV RDX,R11
p4749
aVMOV RDI,R8
p4750
aVMOV qword ptr [RSP + 0x28],R9
p4751
aVMOV qword ptr [RSP + 0x20],R11
p4752
aVMOV qword ptr [RSP + 0x18],R8
p4753
aVCALL 0x00101850
p4754
aVTEST EAX,EAX
p4755
aVMOV R8,qword ptr [RSP + 0x18]
p4756
aVMOV R11,qword ptr [RSP + 0x20]
p4757
aVMOV R9,qword ptr [RSP + 0x28]
p4758
aVJNZ 0x00104080
p4759
asV00103c47
p4760
(lp4761
VCMP byte ptr [RSP + 0xa],0x0
p4762
aVJZ 0x00103c90
p4763
asV0010564d
p4764
(lp4765
VMOV RDI,qword ptr [RSP + 0x18]
p4766
aVXOR RDI,qword ptr FS:[0x28]
p4767
aVMOV EAX,EBP
p4768
aVJNZ 0x001058e6
p4769
asV001039c0
p4770
(lp4771
VCMP R11,0x1
p4772
aVJBE 0x001039f9
p4773
asV0010431e
p4774
(lp4775
VMOV RDX,RBX
p4776
aVMOV R9,R15
p4777
aVMOVZX R10D,byte ptr [RSP + 0x6e]
p4778
aVMOV R14,qword ptr [RSP + 0x20]
p4779
aVMOV R11,qword ptr [RSP + 0x60]
p4780
aVMOVZX EBX,byte ptr [RSP + 0x6f]
p4781
aVMOV R13,qword ptr [RSP + 0x58]
p4782
aVMOV R15,qword ptr [RSP + 0x70]
p4783
aVMOV RBP,qword ptr [RSP + 0x18]
p4784
aVMOVZX R12D,byte ptr [RSP + 0xa]
p4785
aVJMP 0x0010425e
p4786
asV0010213a
p4787
(lp4788
VMOV ESI,0xa
p4789
aVMOV RDI,RCX
p4790
aVCALL 0x001017b0
p4791
aVADD EAX,0x1
p4792
aVJZ 0x00102153
p4793
asV00104d30
p4794
(lp4795
VMOV R8,RDX
p4796
aVLEA RDX,[0x107280]
p4797
aVMOV R9,RCX
p4798
aVXOR EAX,EAX
p4799
aVMOV RCX,RSI
p4800
aVMOV ESI,0x1
p4801
aVCALL 0x001019e0
p4802
asV00102d91
p4803
(lp4804
VMOV byte ptr [RDX],0x0
p4805
aVRET
p4806
asV00103e82
p4807
(lp4808
VMOV EAX,EBX
p4809
aVSHR AL,0x3
p4810
aVAND EAX,0x7
p4811
aVADD EAX,0x30
p4812
aVMOV byte ptr [RCX + R15*0x1 + 0x2],AL
p4813
asV0010588a
p4814
(lp4815
VMOV EDX,0x400
p4816
aVMOV RAX,RDX
p4817
aVMUL RBX
p4818
aVJO 0x00105836
p4819
asV00103478
p4820
(lp4821
VMOV ESI,dword ptr [RBX]
p4822
aVMOV EDI,0x306
p4823
aVCALL 0x00102190
p4824
aVMOV ESI,dword ptr [RBX]
p4825
aVMOV EDI,0x182
p4826
aVCALL 0x00102190
p4827
asV00105415
p4828
(lp4829
VXOR EDX,EDX
p4830
aVMOV EAX,0x80
p4831
aVXOR R8D,R8D
p4832
aVDIV R9
p4833
aVTEST RAX,RAX
p4834
aVSETZ R8B
p4835
aVLEA RCX,[R8 + RAX*0x1]
p4836
aVMOV qword ptr [RSI],RCX
p4837
aVIMUL RCX,R9
p4838
aVMOV RSI,RCX
p4839
aVJMP 0x00105370
p4840
asV00105897
p4841
(lp4842
VSHL RBX,0xa
p4843
aVJMP 0x00105750
p4844
asV00103237
p4845
(lp4846
VMOV EDI,0x11c
p4847
aVCALL 0x001021a0
p4848
aVMOV EDI,0x11c
p4849
aVMOV EBP,EAX
p4850
aVCALL 0x001021a0
p4851
aVCMP EAX,0x6c617545
p4852
aVJZ 0x0010326c
p4853
asV00103e6c
p4854
(lp4855
VMOV EAX,EBX
p4856
aVSHR AL,0x6
p4857
aVADD EAX,0x30
p4858
aVMOV byte ptr [RCX + R15*0x1 + 0x1],AL
p4859
asV00103473
p4860
(lp4861
VTEST RBX,RBX
p4862
aVJZ 0x00103490
p4863
asV00106743
p4864
(lp4865
VMOV RDI,R14
p4866
aVCALL 0x00101680
p4867
aVCMP EAX,-0x1
p4868
aVSETNZ DL
p4869
aVJMP 0x00106730
p4870
asV00105410
p4871
(lp4872
VTEST RCX,RCX
p4873
aVJNZ 0x001053fa
p4874
asV001039b6
p4875
(lp4876
VCMP RBP,-0x1
p4877
aVLEA RBX,[R14 + R11*0x1]
p4878
aVJNZ 0x001039f9
p4879
asV00102d88
p4880
(lp4881
VTEST RCX,RCX
p4882
aVJZ 0x00102d02
p4883
asV00103e79
p4884
(lp4885
VLEA RAX,[R15 + 0x2]
p4886
aVCMP R13,RAX
p4887
aVJBE 0x00103e92
p4888
asV001028c0
p4889
(lp4890
VLEA RSI,[0x106db8]
p4891
aVXOR EDI,EDI
p4892
aVMOV EDX,0x5
p4893
aVCALL 0x00101740
p4894
aVLEA RDX,[0x1068a9]
p4895
aVMOV RSI,RAX
p4896
aVMOV EDI,0x1
p4897
aVXOR EAX,EAX
p4898
aVCALL 0x00101940
p4899
aVJMP 0x001027b9
p4900
asV0010321e
p4901
(lp4902
VMOV EDI,0x182
p4903
aVCALL 0x001021a0
p4904
aVCMP EAX,0xdf74616c
p4905
aVSETZ AL
p4906
aVMOVZX EAX,AL
p4907
aVIMUL R12D,EAX
p4908
asV00103c35
p4909
(lp4910
VCMP dword ptr [RSP + 0xc],0x2
p4911
aVJNZ 0x00103c47
p4912
asV0010587f
p4913
(lp4914
VSUB R8D,0x1
p4915
aVJNZ 0x00105874
p4916
asV00101c97
p4917
(lp4918
VMOV ESI,dword ptr [RAX]
p4919
aVLEA RDX,[0x106963]
p4920
aVMOV RCX,RBP
p4921
aVMOV EDI,0x1
p4922
aVXOR EAX,EAX
p4923
aVCALL 0x00101960
p4924
aVJMP 0x00101c40
p4925
asV00103c30
p4926
(lp4927
VMOV EAX,0x74
p4928
asV00102d80
p4929
(lp4930
VRET
p4931
asV00106739
p4932
(lp4933
VMOV RAX,qword ptr [R14 + 0x8]
p4934
aVCMP RAX,qword ptr [R14 + 0x10]
p4935
aVJC 0x00106720
p4936
asV00104559
p4937
(lp4938
VMOV RDI,RSI
p4939
aVMOV qword ptr [RSP + 0x10],RSI
p4940
aVCALL 0x00105320
p4941
aVSUB RSP,0x8
p4942
aVMOV qword ptr [RBX + 0x8],RAX
p4943
aVMOV R8D,dword ptr [RBP]
p4944
aVPUSH qword ptr [RBP + 0x30]
p4945
aVPUSH qword ptr [RBP + 0x28]
p4946
aVMOV RCX,R14
p4947
aVPUSH R15
p4948
aVMOV R9D,dword ptr [RSP + 0x3c]
p4949
aVMOV RDI,RAX
p4950
aVMOV RDX,qword ptr [RSP + 0x28]
p4951
aVMOV RSI,qword ptr [RSP + 0x30]
p4952
aVMOV R12,RAX
p4953
aVCALL 0x001038c0
p4954
aVADD RSP,0x20
p4955
asV00105648
p4956
(lp4957
VMOV EBP,0x4
p4958
asV00103467
p4959
(lp4960
VMOV RAX,R14
p4961
aVSUB RAX,RBX
p4962
aVCMP RAX,0x3
p4963
aVJLE 0x001034a7
p4964
asV00106735
p4965
(lp4966
VTEST DL,DL
p4967
aVJZ 0x00106760
p4968
asV00103c1e
p4969
(lp4970
VADD RSP,0xa8
p4971
aVPOP RBX
p4972
aVPOP RBP
p4973
aVPOP R12
p4974
aVPOP R13
p4975
aVPOP R14
p4976
aVPOP R15
p4977
aVRET
p4978
asV00103e5e
p4979
(lp4980
VMOV byte ptr [RCX + R15*0x1],0x5c
p4981
asV00104d4c
p4982
(lp4983
VLEA RSI,[0x107293]
p4984
aVXOR EDI,EDI
p4985
aVMOV EDX,0x5
p4986
aVCALL 0x00101740
p4987
aVLEA RDX,[0x1075a0]
p4988
aVMOV RCX,RAX
p4989
aVMOV R8D,0x7df
p4990
aVMOV ESI,0x1
p4991
aVMOV RDI,RBP
p4992
aVXOR EAX,EAX
p4993
aVCALL 0x001019e0
p4994
aVLEA RSI,[0x107320]
p4995
aVXOR EDI,EDI
p4996
aVMOV EDX,0x5
p4997
aVCALL 0x00101740
p4998
aVMOV RSI,RBP
p4999
aVMOV RDI,RAX
p5000
aVCALL 0x00101860
p5001
aVCMP R12,0x9
p5002
aVJA 0x001050d0
p5003
asV00104353
p5004
(lp5005
VMOV RDI,RBP
p5006
aVMOV RBP,qword ptr [RSP + 0x18]
p5007
aVMOV RCX,R13
p5008
aVMOV RAX,RBX
p5009
aVMOV RDX,RBX
p5010
aVMOV R9,R15
p5011
aVMOVZX R10D,byte ptr [RSP + 0x6e]
p5012
aVMOV R14,qword ptr [RSP + 0x20]
p5013
aVCMP RDI,RBP
p5014
aVMOV R11,qword ptr [RSP + 0x60]
p5015
aVMOVZX EBX,byte ptr [RSP + 0x6f]
p5016
aVMOV R8,qword ptr [RSP + 0x78]
p5017
aVMOV R13,qword ptr [RSP + 0x58]
p5018
aVMOV R15,qword ptr [RSP + 0x70]
p5019
aVJNC 0x001043b7
p5020
asV00106534
p5021
(lp5022
VLEA R15,[0x1072d9]
p5023
asV00103c5b
p5024
(lp5025
VADD R14,0x1
p5026
asV00103e9c
p5027
(lp5028
VADD R14,0x1
p5029
aVCMP R14,RDX
p5030
aVJNC 0x00103b70
p5031
asV00105680
p5032
(lp5033
VMOVZX R12D,byte ptr [RBP]
p5034
aVTEST R12B,R12B
p5035
aVJZ 0x00105648
p5036
asV00103c64
p5037
(lp5038
VMOV RAX,qword ptr [RSP]
p5039
aVMOV byte ptr [RAX + R15*0x1],0x5c
p5040
asV001028f0
p5041
(lp5042
VCMP RSI,0x1
p5043
aVJBE 0x001029e0
p5044
asV00105e40
p5045
(lp5046
VMOV EDI,0x34a
p5047
aVCALL 0x001021a0
p5048
aVCMP EAX,0x1773616c
p5049
aVSETZ AL
p5050
aVMOVZX EAX,AL
p5051
aVIMUL EBX,EAX
p5052
aVJMP 0x00105de6
p5053
asV00104f90
p5054
(lp5055
VLEA RSI,[0x1073f0]
p5056
aVMOV EDX,0x5
p5057
aVXOR EDI,EDI
p5058
aVMOV R14,qword ptr [RBX + 0x18]
p5059
aVMOV R13,qword ptr [RBX + 0x10]
p5060
aVMOV R12,qword ptr [RBX + 0x8]
p5061
aVMOV RBX,qword ptr [RBX]
p5062
aVCALL 0x00101740
p5063
aVSUB RSP,0x8
p5064
asV00102b72
p5065
(lp5066
VMOV ESI,dword ptr [RBX]
p5067
aVMOV EDI,0xff
p5068
aVADD R15,0x1
p5069
aVCALL 0x00102190
p5070
aVMOV ESI,dword ptr [RBX]
p5071
aVMOV EDI,0xeb
p5072
aVCALL 0x00102190
p5073
aVMOV ESI,dword ptr [RBX]
p5074
aVMOV EDI,0x114
p5075
aVCALL 0x00102190
p5076
aVMOV ESI,dword ptr [RBX]
p5077
aVMOV EDI,0x316
p5078
aVCALL 0x00102190
p5079
aVMOVZX EAX,byte ptr [RBX + 0x2]
p5080
aVMOV ESI,dword ptr [RBX]
p5081
aVMOV EDI,0x116
p5082
aVMOVSX EBP,byte ptr [R14 + RAX*0x1]
p5083
aVCALL 0x00102190
p5084
aVMOV ESI,dword ptr [RBX]
p5085
aVMOV EDI,0x318
p5086
aVSHL EBP,0x6
p5087
aVCALL 0x00102190
p5088
aVMOVZX EAX,byte ptr [RBX + 0x3]
p5089
aVOR BPL,byte ptr [R14 + RAX*0x1]
p5090
aVMOV byte ptr [R15 + -0x1],BPL
p5091
aVSUB qword ptr [R13],0x1
p5092
aVJMP 0x00102aae
p5093
asV00101fc0
p5094
(lp5095
VMOV EAX,dword ptr [RBX]
p5096
aVTEST AL,0x30
p5097
aVJNZ 0x00101ecb
p5098
asV00103c4e
p5099
(lp5100
VMOV EBX,EAX
p5101
asV00105678
p5102
(lp5103
VXOR EBP,EBP
p5104
aVJMP 0x00105620
p5105
asV00103012
p5106
(lp5107
VMOV EDI,0xde
p5108
aVCALL 0x001021a0
p5109
aVCMP EAX,0x8375616c
p5110
aVSETZ AL
p5111
aVMOVZX EAX,AL
p5112
aVIMUL EBX,EAX
p5113
asV00103254
p5114
(lp5115
VMOV EDI,0x11c
p5116
aVCALL 0x001021a0
p5117
aVCMP EAX,0x4575616c
p5118
aVSETZ AL
p5119
aVMOVZX EAX,AL
p5120
aVIMUL EBP,EAX
p5121
asV00106765
p5122
(lp5123
VJMP 0x00106591
p5124
asV00106760
p5125
(lp5126
VCMP EAX,-0x1
p5127
aVJZ 0x001066fd
p5128
asV00103490
p5129
(lp5130
VMOV EDX,0x4
p5131
aVMOV ESI,0xa
p5132
aVMOV RDI,RBX
p5133
aVCALL 0x00101840
p5134
aVTEST RAX,RAX
p5135
aVJZ 0x00103506
p5136
asV00102b67
p5137
(lp5138
VCMP qword ptr [R13],0x0
p5139
aVJZ 0x00102aae
p5140
asV0010214c
p5141
(lp5142
VMOV EAX,dword ptr [RBX]
p5143
aVJMP 0x00101edc
p5144
asV00103c50
p5145
(lp5146
VCMP byte ptr [RSP + 0xb],0x0
p5147
aVJNZ 0x00103bc8
p5148
asV00103e92
p5149
(lp5150
VAND EBX,0x7
p5151
aVADD R15,0x3
p5152
aVADD EBX,0x30
p5153
asV00105e1e
p5154
(lp5155
VADD RBX,RBP
p5156
aVLEA RAX,[RBX + RBX*0x2]
p5157
aVPOP RBX
p5158
aVLEA RAX,[RAX + RAX*0x8]
p5159
aVPOP RBP
p5160
aVLEA RDI,[R12 + RAX*0x8]
p5161
aVPOP R12
p5162
aVJMP 0x001018c0
p5163
asV00103683
p5164
(lp5165
VLEA RSI,[0x106884]
p5166
aVXOR EDI,EDI
p5167
aVMOV EDX,0x5
p5168
aVCALL 0x00101740
p5169
aVMOV RDI,qword ptr [0x006d99e8]
p5170
aVMOV RBP,RAX
p5171
aVTEST RDI,RDI
p5172
aVJZ 0x001036cd
p5173
asV00105620
p5174
(lp5175
VTEST R13,R13
p5176
aVJZ 0x0010562e
p5177
asV00102352
p5178
(lp5179
VNOP word ptr [RAX + RAX*0x1]
p5180
asV00105860
p5181
(lp5182
VSUB R8D,0x1
p5183
aVJNZ 0x00105851
p5184
asV00102591
p5185
(lp5186
VMOV EDI,EBP
p5187
aVCALL 0x001019c0
p5188
asV0010560e
p5189
(lp5190
VMOV EAX,dword ptr [R12]
p5191
aVTEST EAX,EAX
p5192
aVJZ 0x00105678
p5193
asV00101c65
p5194
(lp5195
VMOV RDX,qword ptr [RSP]
p5196
aVMOV RSI,qword ptr [0x00309088]
p5197
aVMOV RDI,RBX
p5198
aVCALL 0x00101e40
p5199
aVJMP 0x00101c33
p5200
asV00103c04
p5201
(lp5202
VMOV RCX,qword ptr [RSP + 0x98]
p5203
aVXOR RCX,qword ptr FS:[0x28]
p5204
aVMOV RAX,R15
p5205
aVJNZ 0x00104433
p5206
asV0010366c
p5207
(lp5208
VMOV RDI,qword ptr [0x003090c0]
p5209
aVCALL 0x00105fc0
p5210
aVTEST EAX,EAX
p5211
aVJNZ 0x001036c2
p5212
asV00102106
p5213
(lp5214
VLEA RSI,[0x106884]
p5215
aVMOV EDX,0x5
p5216
aVXOR EDI,EDI
p5217
aVXOR R14D,R14D
p5218
aVCALL 0x00101740
p5219
aVMOV RBX,RAX
p5220
aVCALL 0x001016c0
p5221
aVMOV ESI,dword ptr [RAX]
p5222
aVMOV RDX,RBX
p5223
aVMOV EDI,0x1
p5224
aVXOR EAX,EAX
p5225
aVCALL 0x00101960
p5226
aVJMP 0x0010202c
p5227
asV00103e2e
p5228
(lp5229
VTEST R12B,R12B
p5230
aVJZ 0x00103b30
p5231
asV00105616
p5232
(lp5233
VCMP EAX,0x22
p5234
aVMOV EBP,0x1
p5235
aVJNZ 0x00105648
p5236
asV00102f7d
p5237
(lp5238
VMOV EDI,0x20e
p5239
aVCALL 0x001021a0
p5240
aVMOV EDI,0x20e
p5241
aVMOV R14D,EAX
p5242
aVCALL 0x001021a0
p5243
aVCMP EAX,0x6c617453
p5244
aVJZ 0x00102fb4
p5245
asV00103430
p5246
(lp5247
VSUB RDX,R12
p5248
aVADD qword ptr [RSP + 0x40],RDX
p5249
aVCMP qword ptr [RSP + 0x10],0x0
p5250
aVMOV qword ptr [RSP + 0x50],R12
p5251
aVJZ 0x00103527
p5252
asV00105851
p5253
(lp5254
VMOV RAX,RBX
p5255
aVMUL RSI
p5256
aVMOV RBX,RAX
p5257
aVJO 0x00105933
p5258
asV00101e8c
p5259
(lp5260
VXOR R14D,R14D
p5261
aVJMP 0x00101ea5
p5262
asV00103e37
p5263
(lp5264
VMOVZX R12D,byte ptr [RSP + 0xa]
p5265
asV00101c56
p5266
(lp5267
VADD RSP,0x18
p5268
aVPOP RBX
p5269
aVPOP RBP
p5270
aVPOP R12
p5271
aVPOP R13
p5272
aVPOP R14
p5273
aVPOP R15
p5274
aVRET
p5275
asV00101e98
p5276
(lp5277
VCMP R14,0x77ff
p5278
aVJA 0x00101f38
p5279
asV0010256a
p5280
(lp5281
VLEA RSI,[0x106a00]
p5282
aVXOR EDI,EDI
p5283
aVCALL 0x00101740
p5284
aVMOV RDI,qword ptr [0x003090c0]
p5285
aVMOV RDX,RAX
p5286
aVMOV RCX,RBX
p5287
aVMOV ESI,0x1
p5288
aVXOR EAX,EAX
p5289
aVCALL 0x001019e0
p5290
asV0010389a
p5291
(lp5292
VCMP byte ptr [RBP],0x60
p5293
aVLEA RAX,[0x106fec]
p5294
aVLEA RDX,[0x106ff0]
p5295
aVCMOVNZ RAX,RDX
p5296
aVADD RSP,0x8
p5297
aVPOP RBX
p5298
aVPOP RBP
p5299
aVRET
p5300
asV001061e3
p5301
(lp5302
VMOV EDI,0x318
p5303
aVCALL 0x001021a0
p5304
aVCMP EAX,0x4973616c
p5305
aVSETZ AL
p5306
aVMOVZX EAX,AL
p5307
aVIMUL EBX,EAX
p5308
asV00105848
p5309
(lp5310
VMOV R8D,0x5
p5311
aVXOR R9D,R9D
p5312
asV00103667
p5313
(lp5314
VCMP dword ptr [RAX],0x20
p5315
aVJNZ 0x00103683
p5316
asV001028b9
p5317
(lp5318
VLEA R12,[0x1068a9]
p5319
asV00104310
p5320
(lp5321
VADD R15,0x3
p5322
aVMOV EBX,0x30
p5323
aVJMP 0x00103b3b
p5324
asV00105642
p5325
(lp5326
VNOP word ptr [RAX + RAX*0x1]
p5327
asV00105885
p5328
(lp5329
VJMP 0x001057dd
p5330
asV00102375
p5331
(lp5332
VMOV EDI,0xff
p5333
aVCALL 0x001021a0
p5334
aVMOV EDI,0xff
p5335
aVMOV EBP,EAX
p5336
aVCALL 0x001021a0
p5337
aVCMP EAX,0x6c617562
p5338
aVJZ 0x001023aa
p5339
asV00106730
p5340
(lp5341
VCMP EAX,0xa
p5342
aVJZ 0x00106760
p5343
asV00101c7a
p5344
(lp5345
VLEA RSI,[0x106fea]
p5346
aVMOV RDI,RBP
p5347
aVCALL 0x00101880
p5348
aVMOV EBX,EAX
p5349
aVCALL 0x001016c0
p5350
aVTEST EBX,EBX
p5351
aVMOV R12,RAX
p5352
aVJZ 0x00101cb1
p5353
asV00103460
p5354
(lp5355
VMOV dword ptr [R15],0x0
p5356
asV00105e06
p5357
(lp5358
VMOV EDI,0x34b
p5359
aVCALL 0x001021a0
p5360
aVCMP EAX,0x1673616c
p5361
aVSETZ AL
p5362
aVMOVZX EAX,AL
p5363
aVIMUL EBX,EAX
p5364
asV0010562e
p5365
(lp5366
VMOV qword ptr [R14],RBX
p5367
aVJMP 0x0010564d
p5368
asV00103e63
p5369
(lp5370
VLEA RAX,[R15 + 0x1]
p5371
aVCMP R13,RAX
p5372
aVJBE 0x00103e79
p5373
asV00104d10
p5374
(lp5375
VPUSH R15
p5376
aVPUSH R14
p5377
aVPUSH R13
p5378
aVPUSH R12
p5379
aVMOV R12,R9
p5380
aVPUSH RBP
p5381
aVPUSH RBX
p5382
aVMOV RBP,RDI
p5383
aVMOV RBX,R8
p5384
aVSUB RSP,0x28
p5385
aVTEST RSI,RSI
p5386
aVJZ 0x00104dc0
p5387
asV0010586b
p5388
(lp5389
VMOV R8D,0x6
p5390
aVXOR R9D,R9D
p5391
asV00104306
p5392
(lp5393
VMOV RAX,qword ptr [RSP]
p5394
aVMOV byte ptr [RAX + R15*0x1 + 0x2],0x30
p5395
asV00105638
p5396
(lp5397
VTEST R13,R13
p5398
aVMOV qword ptr [RSP + 0x8],RCX
p5399
aVJNZ 0x00105680
p5400
asV00103455
p5401
(lp5402
VMOV R13,RBP
p5403
aVJMP 0x00102f7d
p5404
asV00104547
p5405
(lp5406
VMOV RDI,R12
p5407
aVMOV qword ptr [RSP + 0x10],RSI
p5408
aVCALL 0x001016a0
p5409
aVMOV RSI,qword ptr [RSP + 0x10]
p5410
asV00102369
p5411
(lp5412
VMOV qword ptr [RSP + 0x40],0xc00
p5413
aVMOV R15,RBX
p5414
asV00106720
p5415
(lp5416
VLEA RDX,[RAX + 0x1]
p5417
aVMOV qword ptr [R14 + 0x8],RDX
p5418
aVMOVZX EAX,byte ptr [RAX]
p5419
aVMOV EDX,0x1
p5420
asV00102f9b
p5421
(lp5422
VMOV EDI,0x20e
p5423
aVCALL 0x001021a0
p5424
aVCMP EAX,0x5374616c
p5425
aVSETZ AL
p5426
aVMOVZX EAX,AL
p5427
aVIMUL R14D,EAX
p5428
asV00105874
p5429
(lp5430
VMOV RAX,RBX
p5431
aVMUL RSI
p5432
aVMOV RBX,RAX
p5433
aVJO 0x001058eb
p5434
asV00102360
p5435
(lp5436
VTEST R12D,R12D
p5437
aVJNZ 0x00102268
p5438
asV00104780
p5439
(lp5440
VPUSH R15
p5441
aVPUSH R14
p5442
aVLEA RAX,[0x6d9b00]
p5443
aVPUSH R13
p5444
aVPUSH R12
p5445
aVMOV R12,RDX
p5446
aVPUSH RBP
p5447
aVPUSH RBX
p5448
aVMOV RBX,RCX
p5449
aVMOV R14,RDI
p5450
aVMOV R15,RSI
p5451
aVSUB RSP,0x38
p5452
aVTEST RCX,RCX
p5453
aVCMOVZ RBX,RAX
p5454
aVXOR EBP,EBP
p5455
aVCALL 0x001016c0
p5456
aVTEST R12,R12
p5457
aVMOV R13,RAX
p5458
aVMOV EAX,dword ptr [RAX]
p5459
aVSETZ BPL
p5460
aVOR EBP,dword ptr [RBX + 0x4]
p5461
aVLEA R10,[RBX + 0x8]
p5462
aVSUB RSP,0x8
p5463
aVMOV R8D,dword ptr [RBX]
p5464
aVMOV RCX,R15
p5465
aVMOV dword ptr [RSP + 0x14],EAX
p5466
aVPUSH qword ptr [RBX + 0x30]
p5467
aVMOV RDX,R14
p5468
aVPUSH qword ptr [RBX + 0x28]
p5469
aVPUSH R10
p5470
aVXOR ESI,ESI
p5471
aVMOV R9D,EBP
p5472
aVXOR EDI,EDI
p5473
aVMOV qword ptr [RSP + 0x40],R10
p5474
aVCALL 0x001038c0
p5475
aVLEA RSI,[RAX + 0x1]
p5476
aVMOV qword ptr [RSP + 0x48],RAX
p5477
aVADD RSP,0x20
p5478
aVMOV RDI,RSI
p5479
aVMOV qword ptr [RSP + 0x18],RSI
p5480
aVCALL 0x00105320
p5481
aVMOV qword ptr [RSP + 0x10],RAX
p5482
aVSUB RSP,0x8
p5483
aVPUSH qword ptr [RBX + 0x30]
p5484
aVPUSH qword ptr [RBX + 0x28]
p5485
aVMOV R10,qword ptr [RSP + 0x38]
p5486
aVMOV R9D,EBP
p5487
aVMOV R8D,dword ptr [RBX]
p5488
aVMOV RCX,R15
p5489
aVMOV RDX,R14
p5490
aVMOV RDI,RAX
p5491
aVPUSH R10
p5492
aVMOV RSI,qword ptr [RSP + 0x38]
p5493
aVCALL 0x001038c0
p5494
aVMOV EAX,dword ptr [RSP + 0x2c]
p5495
aVADD RSP,0x20
p5496
aVTEST R12,R12
p5497
aVMOV dword ptr [R13],EAX
p5498
aVJZ 0x0010484f
p5499
asV00102b28
p5500
(lp5501
VMOV ESI,dword ptr [RBX]
p5502
aVMOV EDI,0xfd
p5503
aVCALL 0x00102190
p5504
aVMOV ESI,dword ptr [RBX]
p5505
aVMOV EDI,0x112
p5506
aVCALL 0x00102190
p5507
aVMOV ESI,dword ptr [RBX]
p5508
aVMOV EDI,0x314
p5509
aVCALL 0x00102190
p5510
aVMOV ESI,dword ptr [RBX]
p5511
aVMOV EDI,0x236
p5512
aVCALL 0x00102190
p5513
aVMOVZX EAX,byte ptr [RBX + 0x3]
p5514
aVCMP byte ptr [R14 + RAX*0x1],0x0
p5515
aVJS 0x001029c5
p5516
asV001061fb
p5517
(lp5518
VMOV EDI,0x31e
p5519
aVADD RBP,RBX
p5520
aVCALL 0x001021a0
p5521
aVMOV EDI,0x31e
p5522
aVMOV EBX,EAX
p5523
aVCALL 0x001021a0
p5524
aVCMP EAX,0x6c617343
p5525
aVJZ 0x00106233
p5526
asV00103e59
p5527
(lp5528
VCMP R15,R13
p5529
aVJNC 0x00103e63
p5530
asV00101a30
p5531
(lp5532
VPUSH R15
p5533
aVPUSH R14
p5534
aVPUSH R13
p5535
aVPUSH R12
p5536
aVXOR R13D,R13D
p5537
aVPUSH RBP
p5538
aVPUSH RBX
p5539
aVMOV EBP,EDI
p5540
aVMOV RBX,RSI
p5541
aVXOR R12D,R12D
p5542
aVSUB RSP,0x18
p5543
aVMOV RDI,qword ptr [RSI]
p5544
aVMOV RAX,qword ptr FS:[0x28]
p5545
aVMOV qword ptr [RSP + 0x8],RAX
p5546
aVXOR EAX,EAX
p5547
aVMOV qword ptr [RSP],0x4c
p5548
aVMOV R14,RSP
p5549
aVCALL 0x00103730
p5550
aVLEA RSI,[0x1072d9]
p5551
aVMOV EDI,0x6
p5552
aVCALL 0x00101930
p5553
aVLEA RSI,[0x106938]
p5554
aVLEA RDI,[0x10692a]
p5555
aVCALL 0x00101730
p5556
aVLEA RDI,[0x10692a]
p5557
aVCALL 0x00101710
p5558
aVLEA RDI,[0x103640]
p5559
aVCALL 0x00106850
p5560
asV00103e50
p5561
(lp5562
VTEST SIL,SIL
p5563
aVJNZ 0x00103bc8
p5564
asV0010367c
p5565
(lp5566
VADD RSP,0x8
p5567
aVPOP RBX
p5568
aVPOP RBP
p5569
aVRET
p5570
asV00104f40
p5571
(lp5572
VMOV R13,qword ptr [RBX + 0x10]
p5573
aVMOV R12,qword ptr [RBX + 0x8]
p5574
aVLEA RSI,[0x1072be]
p5575
aVMOV RBX,qword ptr [RBX]
p5576
aVMOV EDX,0x5
p5577
aVXOR EDI,EDI
p5578
aVCALL 0x00101740
p5579
aVADD RSP,0x28
p5580
aVMOV R9,R13
p5581
aVMOV R8,R12
p5582
aVMOV RCX,RBX
p5583
aVMOV RDI,RBP
p5584
aVMOV RDX,RAX
p5585
aVPOP RBX
p5586
aVPOP RBP
p5587
aVPOP R12
p5588
aVPOP R13
p5589
aVPOP R14
p5590
aVPOP R15
p5591
aVMOV ESI,0x1
p5592
aVXOR EAX,EAX
p5593
aVJMP 0x001019e0
p5594
asV00103449
p5595
(lp5596
VTEST RBX,RBX
p5597
aVMOV R13,RBX
p5598
aVJNZ 0x00102f38
p5599
asV00103e3d
p5600
(lp5601
VADD RDX,R14
p5602
aVMOVZX ESI,byte ptr [RSP + 0xb]
p5603
aVMOV RCX,qword ptr [RSP]
p5604
aVJMP 0x00103ebb
p5605
asV00104534
p5606
(lp5607
VLEA RSI,[RAX + 0x1]
p5608
aVLEA RAX,[0x6d9a00]
p5609
aVCMP R12,RAX
p5610
aVMOV qword ptr [RBX],RSI
p5611
aVJZ 0x00104559
p5612
asV00105866
p5613
(lp5614
VJMP 0x001057dd
p5615
asV00102598
p5616
(lp5617
VLEA RSI,[0x106a28]
p5618
aVXOR EDI,EDI
p5619
aVCALL 0x00101740
p5620
aVMOV RDX,RBX
p5621
aVMOV RSI,RAX
p5622
aVMOV EDI,0x1
p5623
aVXOR EAX,EAX
p5624
aVCALL 0x00101940
p5625
aVMOV RBX,qword ptr [0x00309088]
p5626
aVLEA RSI,[0x106a90]
p5627
aVMOV EDX,0x5
p5628
aVXOR EDI,EDI
p5629
aVCALL 0x00101740
p5630
aVMOV RSI,RBX
p5631
aVMOV RDI,RAX
p5632
aVCALL 0x00101860
p5633
aVMOV RBX,qword ptr [0x00309088]
p5634
aVLEA RSI,[0x106ac8]
p5635
aVMOV EDX,0x5
p5636
aVXOR EDI,EDI
p5637
aVCALL 0x00101740
p5638
aVMOV RSI,RBX
p5639
aVMOV RDI,RAX
p5640
aVCALL 0x00101860
p5641
aVMOV RBX,qword ptr [0x00309088]
p5642
aVLEA RSI,[0x106b18]
p5643
aVMOV EDX,0x5
p5644
aVXOR EDI,EDI
p5645
aVCALL 0x00101740
p5646
aVMOV RSI,RBX
p5647
aVMOV RDI,RAX
p5648
aVCALL 0x00101860
p5649
aVMOV RBX,qword ptr [0x00309088]
p5650
aVLEA RSI,[0x106c10]
p5651
aVMOV EDX,0x5
p5652
aVXOR EDI,EDI
p5653
aVCALL 0x00101740
p5654
aVMOV RSI,RBX
p5655
aVMOV RDI,RAX
p5656
aVCALL 0x00101860
p5657
aVMOV RBX,qword ptr [0x00309088]
p5658
aVLEA RSI,[0x106c40]
p5659
aVMOV EDX,0x5
p5660
aVXOR EDI,EDI
p5661
aVCALL 0x00101740
p5662
aVMOV RSI,RBX
p5663
aVMOV RDI,RAX
p5664
aVCALL 0x00101860
p5665
aVMOV RBX,qword ptr [0x00309088]
p5666
aVLEA RSI,[0x106c78]
p5667
aVMOV EDX,0x5
p5668
aVXOR EDI,EDI
p5669
aVCALL 0x00101740
p5670
aVMOV RSI,RBX
p5671
aVMOV RDI,RAX
p5672
aVLEA RBX,[0x1068a9]
p5673
aVCALL 0x00101860
p5674
aVLEA RAX,[0x1068b0]
p5675
aVLEA RCX,[0x1068f1]
p5676
aVMOV qword ptr [RSP + 0x60],0x0
p5677
aVMOV qword ptr [RSP + 0x68],0x0
p5678
aVMOV RDX,RSP
p5679
aVMOV qword ptr [RSP],RAX
p5680
aVLEA RAX,[0x1068b2]
p5681
aVMOV qword ptr [RSP + 0x30],RCX
p5682
aVLEA RCX,[0x1068fb]
p5683
aVMOV qword ptr [RSP + 0x8],RAX
p5684
aVLEA RAX,[0x10692a]
p5685
aVMOV qword ptr [RSP + 0x40],RCX
p5686
aVLEA RCX,[0x106905]
p5687
aVMOV qword ptr [RSP + 0x10],RAX
p5688
aVLEA RAX,[0x1068c2]
p5689
aVMOV qword ptr [RSP + 0x50],RCX
p5690
aVMOV qword ptr [RSP + 0x18],RAX
p5691
aVLEA RAX,[0x1068d8]
p5692
aVMOV qword ptr [RSP + 0x20],RAX
p5693
aVLEA RAX,[0x1068e2]
p5694
aVMOV qword ptr [RSP + 0x28],RAX
p5695
aVMOV qword ptr [RSP + 0x38],RAX
p5696
aVMOV qword ptr [RSP + 0x48],RAX
p5697
aVMOV qword ptr [RSP + 0x58],RAX
p5698
aVNOP dword ptr [RAX]
p5699
asV00105625
p5700
(lp5701
VMOVZX R12D,byte ptr [RCX]
p5702
aVTEST R12B,R12B
p5703
aVJNZ 0x001056a7
p5704
asV00102358
p5705
(lp5706
VXOR R12D,R12D
p5707
aVJMP 0x0010243d
p5708
asV00106712
p5709
(lp5710
VMOV byte ptr [R15 + RAX*0x1],0x0
p5711
aVJMP 0x0010653b
p5712
asV00102310
p5713
(lp5714
VLEA RSI,[0x106890]
p5715
aVXOR EDI,EDI
p5716
aVMOV EDX,0x5
p5717
aVCALL 0x00101740
p5718
aVMOV RBP,RAX
p5719
aVCALL 0x001016c0
p5720
aVMOV ESI,dword ptr [RAX]
p5721
aVMOV RDX,RBP
p5722
aVXOR EAX,EAX
p5723
aVMOV EDI,0x1
p5724
aVCALL 0x00101960
p5725
aVMOV EAX,dword ptr [R13]
p5726
aVMOV EDX,EAX
p5727
aVAND EDX,0x10
p5728
aVCMP RBX,0xfff
p5729
aVJBE 0x00102291
p5730
asV00103640
p5731
(lp5732
VPUSH RBP
p5733
aVPUSH RBX
p5734
aVSUB RSP,0x8
p5735
aVMOV RDI,qword ptr [0x00309088]
p5736
aVCALL 0x00105fc0
p5737
aVTEST EAX,EAX
p5738
aVJZ 0x0010366c
p5739
asV00102d18
p5740
(lp5741
VNOP dword ptr [RAX + RAX*0x1]
p5742
asV001061ab
p5743
(lp5744
VMOV EDI,0x316
p5745
aVCALL 0x001021a0
p5746
aVCMP EAX,0x4b73616c
p5747
aVSETZ AL
p5748
aVMOVZX EAX,AL
p5749
aVIMUL EBP,EAX
p5750
asV001063ea
p5751
(lp5752
VMOVZX EBP,byte ptr [R15]
p5753
aVTEST BPL,BPL
p5754
aVJZ 0x0010641c
p5755
asV0010386c
p5756
(lp5757
VMOVZX EDX,byte ptr [RAX + 0x2]
p5758
aVAND EDX,0xffffffdf
p5759
aVCMP DL,0x46
p5760
aVJNZ 0x001037f0
p5761
asV00101c20
p5762
(lp5763
VMOV RSI,qword ptr [0x00309088]
p5764
aVMOVZX EDX,R12B
p5765
aVMOV RDI,RBX
p5766
aVCALL 0x00102200
p5767
asV001063f3
p5768
(lp5769
VMOV RSI,R15
p5770
aVMOV RDI,RBX
p5771
aVCALL 0x00101880
p5772
aVTEST EAX,EAX
p5773
aVJZ 0x0010640f
p5774
asV00101c0e
p5775
(lp5776
VMOV ESI,0x2
p5777
aVMOV RDI,RBX
p5778
aVCALL 0x00103700
p5779
aVTEST R13B,R13B
p5780
aVJZ 0x00101c65
p5781
asV00105810
p5782
(lp5783
VMOV RAX,RBX
p5784
aVMUL RSI
p5785
aVMOV RBX,RAX
p5786
aVJO 0x001058f7
p5787
asV001041ff
p5788
(lp5789
VMOV EDI,dword ptr [RSP + 0x8c]
p5790
aVCALL 0x00101a00
p5791
aVMOV RDI,qword ptr [RSP + 0x10]
p5792
aVTEST EAX,EAX
p5793
aVMOV EAX,0x0
p5794
aVCMOVZ R12D,EAX
p5795
aVADD RBX,R14
p5796
aVCALL 0x001019f0
p5797
aVTEST EAX,EAX
p5798
aVJZ 0x0010415f
p5799
asV00102540
p5800
(lp5801
VPUSH R12
p5802
aVPUSH RBP
p5803
aVMOV EDX,0x5
p5804
aVPUSH RBX
p5805
aVMOV EBP,EDI
p5806
aVADD RSP,-0x80
p5807
aVMOV RBX,qword ptr [0x006d99f0]
p5808
aVMOV RAX,qword ptr FS:[0x28]
p5809
aVMOV qword ptr [RSP + 0x78],RAX
p5810
aVXOR EAX,EAX
p5811
aVTEST EDI,EDI
p5812
aVJZ 0x00102598
p5813
asV00102d08
p5814
(lp5815
VTEST RAX,RAX
p5816
aVLEA R8,[RDI + RAX*0x1]
p5817
aVLEA RCX,[0x106f60]
p5818
aVJZ 0x00102d02
p5819
asV0010252d
p5820
(lp5821
VCALL 0x00101770
p5822
asV00102d02
p5823
(lp5824
VRET
p5825
asV0010361a
p5826
(lp5827
VCALL 0x00101770
p5828
asV0010276a
p5829
(lp5830
VCALL 0x00101740
p5831
aVLEA RCX,[0x106d90]
p5832
aVLEA RDX,[0x106926]
p5833
aVMOV RSI,RAX
p5834
aVMOV EDI,0x1
p5835
aVXOR EAX,EAX
p5836
aVCALL 0x00101940
p5837
aVXOR ESI,ESI
p5838
aVMOV EDI,0x5
p5839
aVCALL 0x00101930
p5840
aVTEST RAX,RAX
p5841
aVJZ 0x001027b9
p5842
asV00105807
p5843
(lp5844
VMOV R8D,0x4
p5845
aVXOR R9D,R9D
p5846
asV00105805
p5847
(lp5848
VJMP 0x001057dd
p5849
asV00105ab8
p5850
(lp5851
VMOV EDI,0x23c
p5852
aVLEA R13,[RBX + RBP*0x1]
p5853
aVCALL 0x001021a0
p5854
aVMOV EDI,0x23c
p5855
aVMOV EBP,EAX
p5856
aVCALL 0x001021a0
p5857
aVCMP EAX,0x6c617425
p5858
aVJZ 0x00105af1
p5859
asV00104990
p5860
(lp5861
VSUB RSP,0x48
p5862
aVMOV RAX,RDX
p5863
aVMOV RDX,qword ptr FS:[0x28]
p5864
aVMOV qword ptr [RSP + 0x38],RDX
p5865
aVXOR EDX,EDX
p5866
aVCMP ESI,0x8
p5867
aVJZ 0x00104a14
p5868
asV00105af1
p5869
(lp5870
VMOV EDI,0x23d
p5871
aVADD RBP,R13
p5872
aVCALL 0x001021a0
p5873
aVMOV EDI,0x23d
p5874
aVMOV EBX,EAX
p5875
aVCALL 0x001021a0
p5876
aVCMP EAX,0x6c617424
p5877
aVJZ 0x00105b29
p5878
asV00101c40
p5879
(lp5880
VXOR EAX,EAX
p5881
aVMOV RCX,qword ptr [RSP + 0x8]
p5882
aVXOR RCX,qword ptr FS:[0x28]
p5883
aVJNZ 0x00101d24
p5884
asV0010279d
p5885
(lp5886
VLEA RSI,[0x106934]
p5887
aVMOV EDX,0x3
p5888
aVMOV RDI,RAX
p5889
aVCALL 0x001016d0
p5890
aVTEST EAX,EAX
p5891
aVJNZ 0x001028c0
p5892
asV00103417
p5893
(lp5894
VADD RSP,0x68
p5895
aVPOP RBX
p5896
aVPOP RBP
p5897
aVPOP R12
p5898
aVPOP R13
p5899
aVPOP R14
p5900
aVPOP R15
p5901
aVRET
p5902
asV00105836
p5903
(lp5904
VMOV EBP,0x1
p5905
aVOR RBX,-0x1
p5906
aVJMP 0x00105750
p5907
asV00103656
p5908
(lp5909
VCALL 0x001016c0
p5910
aVCMP byte ptr [0x006d99e0],0x0
p5911
aVMOV RBX,RAX
p5912
aVJZ 0x00103683
p5913
asV00103890
p5914
(lp5915
VCMP byte ptr [RAX + 0x5],0x0
p5916
aVJNZ 0x001037f0
p5917
asV0010230e
p5918
(lp5919
VNOP
p5920
asV0010581f
p5921
(lp5922
VSUB R8D,0x1
p5923
aVJNZ 0x00105810
p5924
asV001019b0
p5925
(lp5926
VJMP qword ptr [0x00308f88]
p5927
asV00101c33
p5928
(lp5929
VMOV RDI,RBX
p5930
aVCALL 0x00105960
p5931
aVADD EAX,0x1
p5932
aVJZ 0x00101c7a
p5933
asV0010387c
p5934
(lp5935
VCMP byte ptr [RAX + 0x3],0x2d
p5936
aVJNZ 0x001037f0
p5937
asV00104f00
p5938
(lp5939
VMOV R12,qword ptr [RBX + 0x8]
p5940
aVLEA RSI,[0x1072a7]
p5941
aVMOV RBX,qword ptr [RBX]
p5942
aVMOV EDX,0x5
p5943
aVXOR EDI,EDI
p5944
aVCALL 0x00101740
p5945
aVADD RSP,0x28
p5946
aVMOV R8,R12
p5947
aVMOV RCX,RBX
p5948
aVMOV RDI,RBP
p5949
aVMOV RDX,RAX
p5950
aVMOV ESI,0x1
p5951
aVPOP RBX
p5952
aVPOP RBP
p5953
aVPOP R12
p5954
aVPOP R13
p5955
aVPOP R14
p5956
aVPOP R15
p5957
aVXOR EAX,EAX
p5958
aVJMP 0x001019e0
p5959
asV00102d20
p5960
(lp5961
VMOVZX EAX,byte ptr [RDI]
p5962
aVADD RDI,0x3
p5963
aVADD RDX,0x4
p5964
aVMOV ESI,EAX
p5965
aVSHL EAX,0x4
p5966
aVSHR SIL,0x2
p5967
aVAND ESI,0x3f
p5968
aVMOVZX ESI,byte ptr [RCX + RSI*0x1]
p5969
aVMOV byte ptr [RDX + -0x4],SIL
p5970
aVMOVZX ESI,byte ptr [RDI + -0x2]
p5971
aVMOV R9D,ESI
p5972
aVSHR R9B,0x4
p5973
aVADD EAX,R9D
p5974
aVAND EAX,0x3f
p5975
aVMOVZX EAX,byte ptr [RCX + RAX*0x1]
p5976
aVMOV byte ptr [RDX + -0x3],AL
p5977
aVMOVZX EAX,byte ptr [RDI + -0x1]
p5978
aVMOV R9D,EAX
p5979
aVAND EAX,0x3f
p5980
aVSHR R9B,0x6
p5981
aVMOVZX EAX,byte ptr [RCX + RAX*0x1]
p5982
aVLEA ESI,[R9 + RSI*0x4]
p5983
aVAND ESI,0x3f
p5984
aVMOVZX ESI,byte ptr [RCX + RSI*0x1]
p5985
aVMOV byte ptr [RDX + -0x2],SIL
p5986
aVCMP R8,RDI
p5987
aVMOV byte ptr [RDX + -0x1],AL
p5988
aVJNZ 0x00102d20
p5989
asV00102f61
p5990
(lp5991
VMOV ESI,dword ptr [R13]
p5992
aVMOV EDI,0x20e
p5993
aVCALL 0x00102190
p5994
aVMOV ESI,dword ptr [R13]
p5995
aVMOV EDI,0x20f
p5996
aVCALL 0x00102190
p5997
asV001061c3
p5998
(lp5999
VMOV EDI,0x318
p6000
aVADD RBP,R13
p6001
aVCALL 0x001021a0
p6002
aVMOV EDI,0x318
p6003
aVMOV EBX,EAX
p6004
aVCALL 0x001021a0
p6005
aVCMP EAX,0x6c617349
p6006
aVJZ 0x001061fb
p6007
asV001050d0
p6008
(lp6009
VMOV R10,qword ptr [RBX + 0x40]
p6010
aVMOV R9,qword ptr [RBX + 0x38]
p6011
aVMOV EDX,0x5
p6012
aVMOV RAX,qword ptr [RBX + 0x10]
p6013
aVMOV R8,qword ptr [RBX + 0x8]
p6014
aVLEA RSI,[0x1074f8]
p6015
aVMOV R13,qword ptr [RBX + 0x30]
p6016
aVMOV R12,qword ptr [RBX + 0x28]
p6017
aVMOV R15,qword ptr [RBX + 0x20]
p6018
aVMOV R14,qword ptr [RBX + 0x18]
p6019
aVMOV qword ptr [RSP + 0x18],R10
p6020
aVMOV qword ptr [RSP + 0x10],R9
p6021
aVMOV qword ptr [RSP],RAX
p6022
aVMOV qword ptr [RSP + 0x8],R8
p6023
aVMOV RBX,qword ptr [RBX]
p6024
aVJMP 0x00104eaa
p6025
asV00105827
p6026
(lp6027
VMOV RAX,RBX
p6028
aVMUL RSI
p6029
aVMOV RBX,RAX
p6030
aVJNO 0x00105750
p6031
asV00105825
p6032
(lp6033
VJMP 0x001057dd
p6034
asV00105ad9
p6035
(lp6036
VMOV EDI,0x23c
p6037
aVCALL 0x001021a0
p6038
aVCMP EAX,0x2574616c
p6039
aVSETZ AL
p6040
aVMOVZX EAX,AL
p6041
aVIMUL EBP,EAX
p6042
asV00103886
p6043
(lp6044
VCMP byte ptr [RAX + 0x4],0x38
p6045
aVJNZ 0x001037f0
p6046
asV001065ef
p6047
(lp6048
VMOV RDX,R13
p6049
asV00101660
p6050
(lp6051
VCALL RAX
p6052
asV00101e28
p6053
(lp6054
VRET
p6055
asV00103af3
p6056
(lp6057
VMOV RDI,qword ptr [RSP]
p6058
aVMOV byte ptr [RDI + R15*0x1 + 0x1],0x22
p6059
asV00105cd0
p6060
(lp6061
VMOV EDI,0x32d
p6062
aVCALL 0x001021a0
p6063
aVMOV EDI,0x32d
p6064
aVMOV EBP,EAX
p6065
aVCALL 0x001021a0
p6066
aVCMP EAX,0x6c617334
p6067
aVJNZ 0x00105f20
p6068
asV0010273c
p6069
(lp6070
VMOV ECX,0x7
p6071
aVMOV RSI,RBX
p6072
aVCMPSB.REPE RDI,RSI
p6073
aVSETA AL
p6074
aVSBB AL,0x0
p6075
aVTEST AL,AL
p6076
aVJNZ 0x00102730
p6077
asV00102f12
p6078
(lp6079
VCMP byte ptr [RBX],0xa
p6080
aVJZ 0x001034d0
p6081
asV0010382e
p6082
(lp6083
VCMP byte ptr [RAX + 0x5],0x33
p6084
aVJNZ 0x001037f0
p6085
asV00103adc
p6086
(lp6087
VCMP R15,R13
p6088
aVJNC 0x00103aea
p6089
asV001030e2
p6090
(lp6091
VMOV ESI,dword ptr [RBX]
p6092
aVMOV EDI,0x325
p6093
aVCALL 0x00102190
p6094
aVMOV ESI,dword ptr [RBX]
p6095
aVMOV EDI,0x247
p6096
aVCALL 0x00102190
p6097
aVMOV ESI,dword ptr [RBX]
p6098
aVMOV EDI,0x34a
p6099
aVCALL 0x00102190
p6100
aVMOV EDI,0x116
p6101
aVCALL 0x001021a0
p6102
aVMOV EDI,0x116
p6103
aVMOV R12D,EAX
p6104
aVCALL 0x001021a0
p6105
aVCMP EAX,0x6c61754b
p6106
aVJZ 0x0010313d
p6107
asV001065f2
p6108
(lp6109
VMOV ECX,dword ptr [RDX]
p6110
aVADD RDX,0x4
p6111
aVLEA EAX,[RCX + -0x1010101]
p6112
aVNOT ECX
p6113
aVAND EAX,ECX
p6114
aVAND EAX,0x80808080
p6115
aVJZ 0x001065f2
p6116
asV001041d0
p6117
(lp6118
VMOVZX ECX,byte ptr [RAX]
p6119
aVSUB ECX,0x5b
p6120
aVCMP CL,0x21
p6121
aVJA 0x001041f6
p6122
asV00102508
p6123
(lp6124
VMOV RAX,qword ptr [RSP + 0x1c58]
p6125
aVXOR RAX,qword ptr FS:[0x28]
p6126
aVJNZ 0x0010252d
p6127
asV00103834
p6128
(lp6129
VCMP byte ptr [RAX + 0x6],0x30
p6130
aVJNZ 0x001037f0
p6131
asV00101650
p6132
(lp6133
VSUB RSP,0x8
p6134
aVMOV RAX,qword ptr [0x00308fd0]
p6135
aVTEST RAX,RAX
p6136
aVJZ 0x00101662
p6137
asV00105cc3
p6138
(lp6139
VPOP RBX
p6140
aVMOV RDI,R12
p6141
aVPOP RBP
p6142
aVPOP R12
p6143
aVJMP 0x001018c0
p6144
asV001041ba
p6145
(lp6146
VLEA RCX,[R15 + R14*0x1]
p6147
aVLEA RAX,[R15 + RBP*0x1 + 0x1]
p6148
aVLEA R8,[RCX + RBP*0x1]
p6149
aVNOP word ptr [RAX + RAX*0x1]
p6150
asV001030ca
p6151
(lp6152
VCMP RBP,0x3
p6153
aVJA 0x001030e2
p6154
asV00103ae1
p6155
(lp6156
VMOV RDI,qword ptr [RSP]
p6157
aVMOV byte ptr [RDI + R15*0x1],0x3f
p6158
asV00101e13
p6159
(lp6160
VCALL 0x00101d60
p6161
aVMOV byte ptr [0x003090c8],0x1
p6162
aVPOP RBP
p6163
aVRET
p6164
asV00102f04
p6165
(lp6166
VTEST RBP,RBP
p6167
aVMOV RBX,qword ptr [RSP + 0x48]
p6168
aVJZ 0x00103430
p6169
asV0010381c
p6170
(lp6171
VCMP byte ptr [RAX + 0x2],0x31
p6172
aVJNZ 0x001037f0
p6173
asV00105cac
p6174
(lp6175
VCALL 0x001018f0
p6176
aVTEST EAX,EAX
p6177
aVJZ 0x00105cd0
p6178
asV001030d7
p6179
(lp6180
VCMP byte ptr [RSP + 0x35],0x0
p6181
aVJNZ 0x0010353d
p6182
asV001030d0
p6183
(lp6184
VCMP byte ptr [RSP + 0x37],0x0
p6185
aVJZ 0x001030e2
p6186
asV00103828
p6187
(lp6188
VCMP byte ptr [RAX + 0x4],0x30
p6189
aVJNZ 0x001037f0
p6190
asV00103822
p6191
(lp6192
VCMP byte ptr [RAX + 0x3],0x38
p6193
aVJNZ 0x001037f0
p6194
asV00102730
p6195
(lp6196
VADD RDX,0x10
p6197
aVMOV RDI,qword ptr [RDX]
p6198
aVTEST RDI,RDI
p6199
aVJZ 0x0010274f
p6200
asV00105cb5
p6201
(lp6202
VTEST dword ptr [R12],0x100
p6203
aVJNZ 0x00105f40
p6204
asV00103860
p6205
(lp6206
VMOVZX EDX,byte ptr [RAX + 0x1]
p6207
aVAND EDX,0xffffffdf
p6208
aVCMP DL,0x54
p6209
aVJNZ 0x001037f0
p6210
asV00101c07
p6211
(lp6212
VMOV RBX,qword ptr [0x00309090]
p6213
asV00102f38
p6214
(lp6215
VMOV ESI,dword ptr [RBX]
p6216
aVMOV EDI,0x31e
p6217
aVCALL 0x00102190
p6218
aVMOV ESI,dword ptr [RBX]
p6219
aVMOV EDI,0x240
p6220
aVCALL 0x00102190
p6221
aVMOV ESI,dword ptr [RBX]
p6222
aVMOV EDI,0x343
p6223
aVCALL 0x00102190
p6224
aVTEST R13,R13
p6225
aVJZ 0x00102f7d
p6226
asV001063cb
p6227
(lp6228
VJMP 0x00106460
p6229
asV00105cf1
p6230
(lp6231
VMOV EDI,0x32f
p6232
aVCALL 0x001021a0
p6233
aVMOV EDI,0x32f
p6234
aVMOV EBX,EAX
p6235
aVCALL 0x001021a0
p6236
aVCMP EAX,0x6c617332
p6237
aVJNZ 0x00105f00
p6238
asV00101c00
p6239
(lp6240
VLEA RBP,[0x106fea]
p6241
asV0010251b
p6242
(lp6243
VADD RSP,0x1c68
p6244
aVPOP RBX
p6245
aVPOP RBP
p6246
aVPOP R12
p6247
aVPOP R13
p6248
aVPOP R14
p6249
aVPOP R15
p6250
aVRET
p6251
asV001041f6
p6252
(lp6253
VADD RAX,0x1
p6254
aVCMP R8,RAX
p6255
aVJNZ 0x001041d0
p6256
asV00101e40
p6257
(lp6258
VPUSH R15
p6259
aVPUSH R14
p6260
aVPUSH R13
p6261
aVPUSH R12
p6262
aVXOR R13D,R13D
p6263
aVPUSH RBP
p6264
aVPUSH RBX
p6265
aVMOV R12D,0x7800
p6266
aVMOV RBX,RDI
p6267
aVSUB RSP,0x11858
p6268
aVMOV RAX,qword ptr FS:[0x28]
p6269
aVMOV qword ptr [RSP + 0x11848],RAX
p6270
aVXOR EAX,EAX
p6271
aVLEA RAX,[RSP + 0x7840]
p6272
aVLEA RBP,[RSP + 0x40]
p6273
aVMOV qword ptr [RSP + 0x18],RSI
p6274
aVMOV qword ptr [RSP + 0x8],RDX
p6275
aVMOV qword ptr [RSP + 0x10],RAX
p6276
asV00103afd
p6277
(lp6278
VLEA RDX,[R15 + 0x2]
p6279
aVCMP R13,RDX
p6280
aVJBE 0x00103b10
p6281
asV001063d0
p6282
(lp6283
VMOV RDI,R15
p6284
aVCALL 0x00101760
p6285
aVLEA RBP,[R15 + RAX*0x1 + 0x1]
p6286
aVMOV RDI,RBP
p6287
aVCALL 0x00101760
p6288
aVLEA R15,[RBP + RAX*0x1 + 0x1]
p6289
asV00102f1b
p6290
(lp6291
VSUB RDX,R12
p6292
aVADD qword ptr [RSP + 0x40],RDX
p6293
aVCMP qword ptr [RSP + 0x10],0x0
p6294
aVMOV qword ptr [RSP + 0x50],R12
p6295
aVLEA R13,[RBX + RBP*0x1]
p6296
aVJZ 0x001030ca
p6297
asV00105aa0
p6298
(lp6299
VMOV EDI,0x236
p6300
aVCALL 0x001021a0
p6301
aVCMP EAX,0x2b74616c
p6302
aVSETZ AL
p6303
aVMOVZX EAX,AL
p6304
aVIMUL EBX,EAX
p6305
asV001041db
p6306
(lp6307
VMOV EDX,0x1
p6308
aVSHL RDX,CL
p6309
aVMOV RCX,0x20000002b
p6310
aVTEST RDX,RCX
p6311
aVJNZ 0x001042de
p6312
asV0010274f
p6313
(lp6314
VMOV R12,qword ptr [RDX + 0x8]
p6315
aVXOR EDI,EDI
p6316
aVMOV EDX,0x5
p6317
aVLEA RSI,[0x10690f]
p6318
aVTEST R12,R12
p6319
aVJZ 0x0010282b
p6320
asV0010383a
p6321
(lp6322
VCMP byte ptr [RAX + 0x7],0x0
p6323
aVJNZ 0x001037f0
p6324
asV00103aea
p6325
(lp6326
VLEA RDX,[R15 + 0x1]
p6327
aVCMP R13,RDX
p6328
aVJBE 0x00103afd
p6329
asV00101662
p6330
(lp6331
VADD RSP,0x8
p6332
aVRET
p6333
asV00103840
p6334
(lp6335
VCMP byte ptr [RBP],0x60
p6336
aVLEA RAX,[0x106ff4]
p6337
aVLEA RDX,[0x106ff8]
p6338
aVCMOVNZ RAX,RDX
p6339
aVADD RSP,0x8
p6340
aVPOP RBX
p6341
aVPOP RBP
p6342
aVRET
p6343
asV00103600
p6344
(lp6345
VMOV RDI,qword ptr [RBX]
p6346
aVMOV byte ptr [RSP + 0xf],AL
p6347
aVCALL 0x001016a0
p6348
aVMOV qword ptr [RBX],0x0
p6349
aVMOVZX EAX,byte ptr [RSP + 0xf]
p6350
aVJMP 0x001035dd
p6351
as.